(dp0
(I3
I66
I0
tp1
((F-8.413049526951
F36.70817479096013
F134.06224162898707
tp2
(lp3
F0.6440116419411376
aF0.292554681610641
aF-0.706866863922745
atp4
s(I12
I47
I0
tp5
((F-14.50858498218986
F-96.1632087932744
F47.52317630624293
tp6
(lp7
F-0.5048561613282577
aF-0.49539456556321787
aF-0.706897786656124
atp8
s(I2
I86
I0
tp9
((F77.52042166519823
F56.3753432248709
F-24.526884863156283
tp10
(lp11
F0.0005465155004663289
aF0.0007210886464947201
aF0.999999590675902
atp12
s(I1
I77
I0
tp13
((F5.656585714425091
F95.74612196066664
F-163.8887649777921
tp14
(lp15
F-0.0010094352733288024
aF-0.0001701755576935643
aF0.999999476040217
atp16
s(I4
I96
I0
tp17
((F46.011517310338604
F8.473190999109192
F120.70809546831697
tp18
(lp19
F0.00010216064050874974
aF-0.0003811371154097854
aF0.9999999221488484
atp20
s(I7
I22
I0
tp21
((F-34.55405235777198
F-16.973708860632996
F-68.50769220089842
tp22
(lp23
F0.4048053740200285
aF-0.5788023239852853
aF-0.7078986360445524
atp24
s(I12
I30
I0
tp25
((F-14.610745222245896
F-95.79131899754566
F-39.58971346312728
tp26
(lp27
F-0.7062306305662279
aF-0.04068677101094355
aF-0.7068117734692393
atp28
s(I8
I9
I0
tp29
((F12.14515064522675
F-40.13767775461065
F-141.00420228110033
tp30
(lp31
F-0.6747516376288252
aF-0.21385654004181295
aF-0.7063820551221295
atp32
s(I5
I41
I0
tp33
((F-57.34043350315278
F78.05316424774128
F17.814911688097254
tp34
(lp35
F-0.010279312266866548
aF0.7069296939387462
aF-0.7072091229381808
atp36
s(I1
I30
I0
tp37
((F5.108499528172615
F95.34760809010868
F-48.80435874360137
tp38
(lp39
F-0.5946339320638762
aF-0.3836650093164391
aF-0.7065491118559772
atp40
s(I10
I70
I0
tp41
((F61.709903813265555
F-79.6587011871411
F163.79497633035567
tp42
(lp43
F0.7027021977629728
aF-0.077704367200382
aF-0.707228147472282
atp44
s(I3
I32
I0
tp45
((F-9.245625866331466
F36.960220848689914
F-25.71199083184274
tp46
(lp47
F-0.48089891693869385
aF0.5182706219647744
aF-0.7071999675448501
atp48
s(I11
I38
I0
tp49
((F-78.05729339708523
F-59.46499341889239
F3.950949524374664
tp50
(lp51
F-0.6654094777405671
aF0.23899031598785636
aF-0.7071872848100781
atp52
s(I12
I73
I0
tp53
((F-14.240495463012849
F-96.32726273157277
F165.72192190526334
tp54
(lp55
F-0.12281531172553578
aF-0.6962679016036947
aF-0.7071968667932199
atp56
s(I1
I47
I0
tp57
((F5.294625260134126
F95.09876652619914
F38.332034103874776
tp58
(lp59
F-0.32315062945313744
aF-0.6287657430063203
aF-0.7072674961467911
atp60
s(I11
I23
I0
tp61
((F-77.55579672426393
F-59.04358169542775
F-68.63501660292741
tp62
(lp63
F-0.1315513132435425
aF0.6946601303962933
aF-0.707206868760269
atp64
s(I10
I48
I0
tp65
((F61.26026379191171
F-80.13916223146043
F47.65242765600806
tp66
(lp67
F0.09961271808283352
aF-0.7004778247912843
aF-0.7066881372796778
atp68
s(I4
I30
I0
tp69
((F46.231684248190504
F9.093366534040342
F-40.26039788480921
tp70
(lp71
F0.15608684757121075
aF0.6902493050055899
aF-0.7065357690553123
atp72
s(I2
I51
I0
tp73
((F76.90436157701151
F56.42108063178193
F61.569440674247744
tp74
(lp75
F-0.697696086304386
aF0.11762032167625952
aF-0.7066722232296356
atp76
s(I5
I67
I0
tp77
((F-56.910722592871025
F77.72701742428399
F148.54380898186537
tp78
(lp79
F0.5989757089129485
aF0.3754427204802958
aF-0.7072982848633138
atp80
s(I10
I97
I0
tp81
((F61.142271512406296
F-79.59063269952321
F135.91907549015878
tp82
(lp83
F0.00025636271110086824
aF0.0002151642484980341
aF0.9999999439912517
atp84
s(I4
I77
I0
tp85
((F46.209704713917745
F8.59465363549998
F-155.37680516549426
tp86
(lp87
F-6.043578106890028e-05
aF0.0011914992755434942
aF0.9999992883382431
atp88
s(I3
I86
I0
tp89
((F-8.852980301449861
F36.53626320150988
F-24.569914926407364
tp90
(lp91
F-0.0007954511471492505
aF-0.0005589347152698019
aF0.9999995274246166
atp92
s(I8
I46
I0
tp93
((F12.127595520199975
F-39.775898145966494
F47.77894995270117
tp94
(lp95
F-0.5913996472534871
aF0.3872020642234269
aF-0.7073337392557831
atp96
s(I2
I66
I0
tp97
((F77.1128080522376
F55.829303278496354
F134.22026919517202
tp98
(lp99
F-0.41294321927191924
aF-0.5742934082839222
aF-0.7068698457700541
atp100
s(I10
I12
I0
tp101
((F61.750589119896176
F-79.85752973669469
F-126.59124935817454
tp102
(lp103
F0.5360491239228259
aF-0.462237586788858
aF-0.706390649783237
atp104
s(I10
I94
I0
tp105
((F61.157442180679936
F-79.58128360106411
F92.35407541630002
tp106
(lp107
F-6.296901821984019e-05
aF-0.0005057372886499883
aF0.9999998701323404
atp108
s(I7
I34
I0
tp109
((F-35.514335475791086
F-16.648046965615777
F-10.418644506877172
tp110
(lp111
F-0.6963174889358815
aF-0.11919622149430487
aF-0.7077670629405619
atp112
s(I3
I7
I0
tp113
((F-8.949356390396133
F36.07613119409325
F-141.96042099603937
tp114
(lp115
F-0.24584227571276673
aF-0.6622287406618377
aF-0.7078238979533006
atp116
s(I8
I29
I0
tp117
((F13.069025190970933
F-39.649152631397556
F-39.31705530784029
tp118
(lp119
F0.5192688559423928
aF0.4795781884689787
aF-0.7073645569245687
atp120
s(I5
I37
I0
tp121
((F-57.61344049264426
F76.98619015546365
F3.286545753248447
tp122
(lp123
F-0.3580192345802872
aF-0.609119703945759
aF-0.7076690002646551
atp124
s(I1
I2
I0
tp125
((F5.680089913876145
F96.3361546624451
F-179.56000521152373
tp126
(lp127
F0.017053641625154672
aF0.7066066554399006
aF-0.7074010233208307
atp128
s(I3
I52
I0
tp129
((F-9.424034625255445
F36.76346767233872
F75.95877372690165
tp130
(lp131
F-0.6206050424959865
aF0.33817425916254173
aF-0.7074514482764319
atp132
s(I8
I76
I0
tp133
((F12.713357787692075
F-39.9364316192341
F-168.91777503563526
tp134
(lp135
F0.0002626379929905509
aF0.001046244541218925
aF0.9999994181966531
atp136
s(I11
I42
I0
tp137
((F-77.34194677520736
F-60.21689323248938
F18.46250579796515
tp138
(lp139
F0.22365889465085456
aF-0.6714477991516344
aF-0.7064945518954723
atp140
s(I12
I79
I0
tp141
((F-13.952426950958397
F-95.75916292822512
F-125.59588499337087
tp142
(lp143
F-0.0009021006574873901
aF-0.0005150644494457738
aF0.9999994604613628
atp144
s(I11
I27
I0
tp145
((F-77.73634000133734
F-60.13080449516656
F-54.11931997111242
tp146
(lp147
F-0.3357532789695061
aF-0.6231912973510341
aF-0.7063301937246914
atp148
s(I10
I50
I0
tp149
((F60.83804967287324
F-80.04418074948899
F62.169066874716464
tp150
(lp151
F-0.4078416610474039
aF-0.5776097453787893
aF-0.7071295224762891
atp152
s(I4
I42
I0
tp153
((F46.08541329741092
F7.926635603248087
F17.877497832260815
tp154
(lp155
F0.02863712657006834
aF-0.7069945585052121
aF-0.7066389525251422
atp156
s(I7
I72
I0
tp157
((F-35.60032169674923
F-16.46617152461249
F163.81898991592402
tp158
(lp159
F-0.6746879489068037
aF0.21228104468321687
aF-0.7069179087193451
atp160
s(I2
I63
I0
tp161
((F77.64144684062921
F56.84942406386426
F119.69030431886813
tp162
(lp163
F0.22937121312130526
aF0.6691671171870337
aF-0.7068268641377855
atp164
s(I5
I95
I0
tp165
((F-57.38513832312128
F77.43312532843856
F106.12096537844764
tp166
(lp167
F-0.0004934728192439116
aF0.0003031922136644492
aF0.999999832279515
atp168
s(I1
I84
I0
tp169
((F5.601809123019848
F95.66979781790087
F-62.19181479489316
tp170
(lp171
F0.00050397332262063
aF-0.0006543183234849862
aF0.9999996589391527
atp172
s(I10
I99
I0
tp173
((F61.135593493874694
F-79.59525762050544
F164.937075525213
tp174
(lp175
F0.00015834417753787092
aF-0.00012975672985637106
aF0.999999979045156
atp176
s(I4
I89
I0
tp177
((F46.0617845953966
F8.50490831620391
F19.019115261127354
tp178
(lp179
F-0.00039055430138267206
aF0.0006461799791631317
aF0.9999997149593455
atp180
s(I12
I7
I0
tp181
((F-14.511128659754831
F-95.81694483094498
F-141.26348189894952
tp182
(lp183
F-0.7027522171730717
aF-0.07121051545750025
aF-0.7078618394479315
atp184
s(I8
I34
I0
tp185
((F12.1416223491251
F-40.36583857836058
F-10.286090241883812
tp186
(lp187
F-0.5998527264613654
aF-0.37385678208213924
aF-0.7073950897822616
atp188
s(I2
I78
I0
tp189
((F77.60169490279623
F56.4641589320745
F-140.69281516314732
tp190
(lp191
F-0.0008702469024660746
aF-0.0008132041500851784
aF0.999999290684418
atp192
s(I10
I24
I0
tp193
((F61.76805698260432
F-79.23622838665597
F-68.52734941496738
tp194
(lp195
F0.6208199100447918
aF0.33981419872236296
aF-0.7064764324722057
atp196
s(I10
I80
I0
tp197
((F61.30021822769595
F-79.48922383738318
F-110.9288450625645
tp198
(lp199
F0.0009530779962755144
aF-0.0005559736078566598
aF0.9999993912676549
atp200
s(I7
I46
I0
tp201
((F-34.41512806946048
F-16.59686271953069
F47.6594466326369
tp202
(lp203
F0.70657221245932
aF-0.005569943914205159
aF-0.7076190248326667
atp204
s(I3
I27
I0
tp205
((F-8.470947990837885
F37.008948661445174
F-54.77932795801962
tp206
(lp207
F0.43802036871730515
aF0.5559839879388908
aF-0.7064134495777409
atp208
s(I8
I17
I0
tp209
((F12.344779368289892
F-40.47472253248225
F-97.45005842223418
tp210
(lp211
F-0.40144001612806274
aF-0.5817422691637719
aF-0.7074050082656232
atp212
s(I11
I65
I0
tp213
((F-77.0159032207348
F-59.64417361017195
F134.6099478120027
tp214
(lp215
F0.7015448288223662
aF0.08824361253701592
aF-0.7071406635168238
atp216
s(I5
I49
I0
tp217
((F-57.93888011733725
F77.42918936700244
F61.403622216984786
tp218
(lp219
F-0.7061412068595815
aF-0.027447119360465285
aF-0.707538869330658
atp220
s(I1
I54
I0
tp221
((F6.126546564482851
F95.56714807893013
F67.36243473101558
tp222
(lp223
F0.706266390020434
aF-0.04087514592257793
aF-0.7067651722979226
atp224
s(I8
I64
I0
tp225
((F12.013716625962843
F-40.17321995916609
F134.87503192098848
tp226
(lp227
F-0.704524500261174
aF-0.059019207958121
aF-0.7072212960762275
atp228
s(I11
I62
I0
tp229
((F-77.46947997880488
F-60.27906401559312
F120.09494280092031
tp230
(lp231
F0.1398799946715438
aF-0.6930923639898191
aF-0.7071467754785373
atp232
s(I12
I77
I0
tp233
((F-13.920518906365032
F-95.75764085969377
F-154.63185505554975
tp234
(lp235
F-4.056063443573812e-06
aF0.001097004081482908
aF0.9999993982826157
atp236
s(I2
I24
I0
tp237
((F77.94741786121085
F55.98740100555324
F-69.24128797737376
tp238
(lp239
F0.4887997223100697
aF-0.5119297717825969
aF-0.7064012600726424
atp240
s(I10
I52
I0
tp241
((F61.586715940913564
F-79.97068987508874
F76.68881258938836
tp242
(lp243
F0.5170094066263158
aF-0.4819014817338175
aF-0.7074406232063974
atp244
s(I4
I38
I0
tp245
((F46.1110023815163
F7.933432306585473
F3.3371063254112414
tp246
(lp247
F0.04747803694562072
aF-0.7054999105468603
aF-0.7071178913209327
atp248
s(I7
I84
I0
tp249
((F-34.90173030377355
F-16.514640128278643
F-52.84206545334018
tp250
(lp251
F-0.0008854534719389333
aF-0.0011022645029189143
aF0.9999990004920578
atp252
s(I2
I43
I0
tp253
((F78.05574043009074
F56.446147466224375
F32.48381141129903
tp254
(lp255
F0.6945689829245001
aF0.13069974908775497
aF-0.7074542413100818
atp256
s(I1
I88
I0
tp257
((F5.575711998300903
F95.6350899737422
F-4.100824691385242
tp258
(lp259
F0.0006868486033445646
aF5.783751764786656e-05
aF0.9999997624468806
atp260
s(I12
I100
I0
tp261
((F-14.140116595150175
F-95.75819340347925
F166.8639955380513
tp262
(lp263
F-2.1744850064041345e-05
aF-0.00012553970375251954
aF0.9999999918834721
atp264
s(I4
I85
I0
tp265
((F46.10424042367413
F8.528646721338646
F-39.118864878394106
tp266
(lp267
F0.0002552739749855643
aF-0.0008854148857632172
aF0.9999995754377488
atp268
s(I7
I5
I0
tp269
((F-34.37297621211383
F-15.993406520004555
F-155.68112175051328
tp270
(lp271
F0.49391153029683227
aF0.5056960725330416
aF-0.7073350567195847
atp272
s(I12
I19
I0
tp273
((F-14.05872945214287
F-95.18419431638722
F-83.16645988380378
tp274
(lp275
F-0.07820721569836492
aF0.702096768228882
aF-0.7077738052904111
atp276
s(I8
I54
I0
tp277
((F12.067271115620315
F-40.3244169334821
F76.81641156495925
tp278
(lp279
F-0.6548921889840458
aF-0.26760237888565713
aF-0.7067568093923269
atp280
s(I11
I100
I0
tp281
((F-77.59972205776921
F-59.72402989801458
F179.29897553180194
tp282
(lp283
F2.2792532298420068e-05
aF0.00016796576020950714
aF0.9999999856340018
atp284
s(I5
I28
I0
tp285
((F-57.63231767170237
F77.97449074085534
F-40.29749410399654
tp286
(lp287
F-0.4273421991188042
aF0.562549904824914
aF-0.7077543708334019
atp288
s(I10
I20
I0
tp289
((F60.69523489700441
F-79.5071185703273
F-83.04089587545786
tp290
(lp291
F-0.7070673908609569
aF-0.001320998308040973
aF-0.7071449354584596
atp292
s(I10
I82
I0
tp293
((F61.273173656685685
F-79.50662204299488
F-81.89886498992155
tp294
(lp295
F-5.149301273566669e-05
aF-0.0010341792193841873
aF0.9999994639107622
atp296
s(I7
I58
I0
tp297
((F-35.0307393572557
F-17.200073687119584
F105.74256393513406
tp298
(lp299
F-0.00269463721422624
aF-0.7067570717889058
aF-0.7074511858825705
atp300
s(I3
I47
I0
tp301
((F-8.533677455210636
F36.05268294942198
F46.9080083110407
tp302
(lp303
F0.4492539625447668
aF-0.5459597509288807
aF-0.7071766593316693
atp304
s(I11
I85
I0
tp305
((F-77.47601579579623
F-59.63312705930957
F-38.46496511401938
tp306
(lp307
F-0.00042094549481615505
aF-0.0010691955339086029
aF0.9999993398126824
atp308
s(I1
I58
I0
tp309
((F5.1300273933811695
F95.9958489339765
F96.43202038962454
tp310
(lp311
F-0.5038093203428067
aF0.49592576524093046
aF-0.7072720863330582
atp312
s(I10
I33
I0
tp313
((F61.75481729468629
F-79.77045545329065
F-24.948428525354757
tp314
(lp315
F0.646962921209106
aF-0.2867538426518792
aF-0.7065488039088038
atp316
s(I8
I84
I0
tp317
((F12.65101398024126
F-40.030635778787655
F-52.69183481226901
tp318
(lp319
F-0.0002711694555555519
aF0.000802084987693661
aF0.9999996415633352
atp320
s(I11
I2
I0
tp321
((F-77.89051475073393
F-59.36914656665567
F-170.25394500723542
tp322
(lp323
F-0.6797360806740409
aF0.19438556842115715
aF-0.7072291788518609
atp324
s(I12
I83
I0
tp325
((F-14.007545208352894
F-95.75786302506185
F-67.48793486770364
tp326
(lp327
F0.0006796419499049988
aF0.0006048387138042351
aF0.9999995861283895
atp328
s(I4
I3
I0
tp329
((F46.27658435722151
F8.02671646835961
F-171.04417552131827
tp330
(lp331
F0.06374616209785322
aF-0.7049873998297606
aF-0.7063492003952915
atp332
s(I2
I4
I0
tp333
((F77.0548589416685
F56.62234841225654
F-156.3612811755038
tp334
(lp335
F-0.6842130191115905
aF0.17614763675320433
aF-0.7076895891169118
atp336
s(I10
I54
I0
tp337
((F61.294093717635405
F-79.01328509268387
F76.68937568117735
tp338
(lp339
F0.15902470350142692
aF0.6893570199594273
aF-0.7067517546557214
atp340
s(I4
I50
I0
tp341
((F46.25101502337384
F7.952048982620454
F61.45609846500338
tp342
(lp343
F0.26198403972779016
aF-0.6567741266014373
aF-0.7071153438830379
atp344
s(I7
I96
I0
tp345
((F-35.03446589000305
F-16.628041623333957
F121.38584539184194
tp346
(lp347
F0.0004889602986790193
aF-0.00026375955825650425
aF0.999999845674349
atp348
s(I3
I69
I0
tp349
((F-9.482339491107268
F36.257792129373684
F148.59120434182523
tp350
(lp351
F-0.6597119830956416
aF-0.2550584791376685
aF-0.7069124921657527
atp352
s(I2
I87
I0
tp353
((F77.51170898730743
F56.36444136423415
F-9.997894826298761
tp354
(lp355
F0.0005038376096604499
aF-0.0007007719903896593
aF0.9999996275330709
atp356
s(I1
I76
I0
tp357
((F5.6656129804796365
F95.75881098192849
F-178.41776500343803
tp358
(lp359
F-0.0009521692182395064
aF0.0004388457038639679
aF0.999999450393963
atp360
s(I4
I97
I0
tp361
((F46.006993039527515
F8.470529651288416
F135.23409549039525
tp362
(lp363
F0.00011788982872606513
aF-0.00031248493630549106
aF0.9999999442275749
atp364
s(I7
I17
I0
tp365
((F-34.278531682714856
F-16.392199525525484
F-97.55518006149987
tp366
(lp367
F0.7003933971223375
aF0.09572605486222759
aF-0.7073087103153372
atp368
s(I12
I31
I0
tp369
((F-14.005052266275015
F-96.33482572567982
F-25.075417022549118
tp370
(lp371
F0.04946943033026717
aF-0.7048066437932649
aF-0.7076725021700877
atp372
s(I8
I10
I0
tp373
((F13.092369620901081
F-39.56221597094509
F-126.48412159368081
tp374
(lp375
F0.49391916074766634
aF0.5054655315442309
aF-0.7074944940188785
atp376
s(I12
I90
I0
tp377
((F-14.087759495643695
F-95.75864762192077
F34.15401534542525
tp378
(lp379
F-0.0004746453415673987
aF-0.00041975814532111636
aF0.9999997992574294
atp380
s(I5
I40
I0
tp381
((F-57.82750459052386
F77.1785136702274
F17.814560830104256
tp382
(lp383
F-0.606146559325875
aF-0.3630899505749527
aF-0.7076383514259822
atp384
s(I1
I29
I0
tp385
((F6.108407722498669
F95.3969557944938
F-48.80499670274867
tp386
(lp387
F0.6286218893406785
aF-0.3232946003084809
aF-0.707329570747
atp388
s(I10
I84
I0
tp389
((F61.24891886612386
F-79.5223601334792
F-52.86187491738201
tp390
(lp391
F3.371642539104599e-05
aF-0.0009622697039917538
aF0.9999995364500023
atp392
s(I3
I35
I0
tp393
((F-8.288278082485704
F36.58895907546639
F-11.187987275518935
tp394
(lp395
F0.7031726247769646
aF0.07363821573587209
aF-0.7071956397967335
atp396
s(I11
I89
I0
tp397
((F-77.52512365414168
F-59.66764504535877
F19.60400510149384
tp398
(lp399
F-0.000628803839247525
aF0.000702818416877349
aF0.9999995553259035
atp400
s(I1
I46
I0
tp401
((F6.135858871981327
F95.64151693475333
F38.33196842038387
tp402
(lp403
F0.7059877641431278
aF0.03521781128486057
aF-0.7073478512362155
atp404
s(I10
I67
I0
tp405
((F60.56213364946052
F-79.63851497429505
F149.28994413402097
tp406
(lp407
F-0.7047672475576114
aF-0.05545964304165021
aF-0.7072675270106504
atp408
s(I11
I22
I0
tp409
((F-77.8851308534131
F-59.988986787129306
F-68.63551052884895
tp410
(lp411
F-0.5344481921319012
aF-0.4619183320782809
aF-0.7078111219929801
atp412
s(I12
I81
I0
tp413
((F-13.980439378397932
F-95.75765229390754
F-96.55190493064583
tp414
(lp415
F0.00036547190338635197
aF0.0009055698680101838
aF0.9999995231866373
atp416
s(I4
I31
I0
tp417
((F46.45498209367179
F8.973039588717711
F-25.729310740028268
tp418
(lp419
F0.44268262527261937
aF0.5507061663781587
aF-0.7076403123019585
atp420
s(I2
I48
I0
tp421
((F76.96741741695223
F56.59767803918339
F47.025479170381914
tp422
(lp423
F-0.6284247656659846
aF0.32518606592909566
aF-0.7066373443451812
atp424
s(I5
I66
I0
tp425
((F-57.961153028242734
F77.30181252415241
F134.0231959220705
tp426
(lp427
F-0.6914767136233588
aF-0.14919288968042402
aF-0.7068248978250866
atp428
s(I4
I78
I0
tp429
((F46.19396445287748
F8.58438658848354
F-140.84081512986268
tp430
(lp431
F-0.0011406968210787845
aF-0.00022554774100663608
aF0.999999323969261
atp432
s(I3
I89
I0
tp433
((F-8.883666142748552
F36.51342014148122
F19.002075200653962
tp434
(lp435
F-0.0004012924479119327
aF0.0007280052559738837
aF0.9999996544862996
atp436
s(I8
I47
I0
tp437
((F13.127119042377672
F-39.83250845821294
F47.77898401171933
tp438
(lp439
F0.6313855785036229
aF0.317946812191412
aF-0.7072920725379047
atp440
s(I2
I67
I0
tp441
((F77.72095778915354
F56.80431476168451
F148.76596708225543
tp442
(lp443
F0.3347075910448745
aF0.6227223989926836
aF-0.7072394518759075
atp444
s(I10
I13
I0
tp445
((F61.87645917145528
F-79.4607586180864
F-112.07137913471524
tp446
(lp447
F0.7056124122374849
aF0.03443983173920227
aF-0.7077605680497981
atp448
s(I7
I29
I0
tp449
((F-34.543326973222065
F-16.968213241264493
F-39.46521590124257
tp450
(lp451
F0.45546676752703547
aF-0.5406532772694835
aF-0.7072793348149233
atp452
s(I3
I6
I0
tp453
((F-9.242423794406932
F36.355908187035766
F-156.48311856672217
tp454
(lp455
F-0.6236674763358437
aF-0.3350523036842421
aF-0.7062427576667687
atp456
s(I8
I30
I0
tp457
((F12.7724188719003
F-40.60533055885389
F-39.31637521012908
tp458
(lp459
F0.15641013698484038
aF-0.6901794179760761
aF-0.7065325470568135
atp460
s(I5
I36
I0
tp461
((F-57.007686811793974
F77.00003151805049
F-11.234406929942452
tp462
(lp463
F0.36847838660072496
aF-0.6043366521427401
aF-0.7063999500884973
atp464
s(I1
I1
I0
tp465
((F5.159577450276629
F95.48098288978281
F-179.56012553907703
tp466
(lp467
F-0.6197247194541736
aF-0.33958323993848766
aF-0.7075482282150987
atp468
s(I10
I86
I0
tp469
((F61.225481353132636
F-79.53608504571184
F-23.806884845493187
tp470
(lp471
F-0.0008837965643125445
aF-4.7181936580020286e-05
aF0.9999996083386722
atp472
s(I3
I55
I0
tp473
((F-8.96575139844208
F35.90518052213065
F90.48280062322237
tp474
(lp475
F-0.051642724452086376
aF-0.704905671869194
aF-0.7074185626471828
atp476
s(I8
I77
I0
tp477
((F12.705621696428352
F-39.95060221628728
F-154.38478500803967
tp478
(lp479
F0.001036546729879623
aF-0.0001843525121768157
aF0.9999994457923604
atp480
s(I11
I45
I0
tp481
((F-77.17465803147206
F-60.12821051370611
F32.988475779863165
tp482
(lp483
F0.441450006048271
aF-0.5531142833771108
aF-0.7065313026923907
atp484
s(I11
I26
I0
tp485
((F-76.88419159599289
F-59.6053574607331
F-54.12003360484459
tp486
(lp487
F0.7067379251770222
aF0.01962386043845442
aF-0.7072032304917518
atp488
s(I12
I87
I0
tp489
((F-14.056169116358433
F-95.75864803833383
F-9.408964743455272
tp490
(lp491
F0.000685733943927587
aF-0.00033017455757734386
aF0.9999997103768179
atp492
s(I4
I43
I0
tp493
((F45.56808971067949
F8.1844798772604
F32.394754621899665
tp494
(lp495
F-0.5929374804811232
aF-0.3844710840797492
aF-0.707535956504855
atp496
s(I7
I75
I0
tp497
((F-34.50702898925101
F-16.4479713699302
F178.3569368689757
tp498
(lp499
F0.6662202780747053
aF0.23733065066573758
aF-0.7069828168609474
atp500
s(I2
I60
I0
tp501
((F77.013784094921
F55.93764840876247
F105.17634790118655
tp502
(lp503
F-0.5438791744381188
aF-0.4523818337124363
aF-0.706785766791808
atp504
s(I5
I94
I0
tp505
((F-57.37827983411171
F77.43861265795704
F91.59497533490548
tp506
(lp507
F-0.0006149838098754721
aF0.00021052173202823021
aF0.9999997887377347
atp508
s(I4
I90
I0
tp509
((F46.05236600272474
F8.49873998262683
F33.5371052944779
tp510
(lp511
F-0.0007091469748815954
aF-2.2153598077930296e-05
aF0.9999997483098614
atp512
s(I8
I35
I0
tp513
((F12.613201781479802
F-39.482739015963034
F-10.286046969897143
tp514
(lp515
F-0.02293747648370307
aF0.7064990812984526
aF-0.7073421522127761
atp516
s(I2
I79
I0
tp517
((F77.59180917768026
F56.4515115489271
F-126.18682512582882
tp518
(lp519
F0.0007540279828609248
aF-0.0008805872974562824
aF0.9999993280036805
atp520
s(I5
I15
I0
tp521
((F-56.78399395798442
F77.96369369374952
F-112.93715158103578
tp522
(lp523
F0.5213618801069747
aF0.4790451189736769
aF-0.7061852193007273
atp524
s(I1
I100
I0
tp525
((F5.530504466682032
F95.57522794340457
F170.249155539286
tp526
(lp527
F-5.0683016369278216e-05
aF0.00010580717903611484
aF0.9999999931180363
atp528
s(I7
I41
I0
tp529
((F-34.67261086757662
F-17.068138509426262
F18.643761205048122
tp530
(lp531
F0.3637409936243197
aF-0.6062137407425214
aF-0.7072463432865183
atp532
s(I3
I26
I0
tp533
((F-9.400834597903668
F36.638054504066986
F-54.77997758880838
tp534
(lp535
F-0.699573274174739
aF0.10224389488588645
aF-0.7072081871832362
atp536
s(I8
I18
I0
tp537
((F12.424371943779988
F-39.47676641988937
F-97.44927148825991
tp538
(lp539
F-0.30406899560669454
aF0.6391254376546955
aF-0.706442298318433
atp540
s(I11
I64
I0
tp541
((F-77.9387571927391
F-59.25611109124293
F134.60978120587288
tp542
(lp543
F-0.4274453124398083
aF0.5629869320160462
aF-0.7073444841464408
atp544
s(I5
I48
I0
tp545
((F-57.9293245566696
F77.49163520829597
F46.85544089293671
tp546
(lp547
F-0.7065320615314613
aF0.040002529882967784
aF-0.7065495337420199
atp548
s(I1
I53
I0
tp549
((F5.289947313887751
F96.1170149183904
F67.36204387895486
tp550
(lp551
F-0.3172024737019198
aF0.6318144231638996
aF-0.7072433282537572
atp552
s(I8
I65
I0
tp553
((F12.836044425263026
F-39.602230475724355
F134.87504910142388
tp554
(lp555
F0.30148512472882216
aF0.639511130671297
aF-0.7072002780788239
atp556
s(I11
I49
I0
tp557
((F-77.92564448286157
F-59.24763352607033
F62.03763988213814
tp558
(lp559
F-0.4540652864390663
aF0.5414881460418651
aF-0.7075417325834233
atp560
s(I2
I25
I0
tp561
((F76.96438360927277
F56.32806925565956
F-54.72625832140511
tp562
(lp563
F-0.70185527968432
aF-0.08206814492911998
aF-0.7075761343962484
atp564
s(I12
I85
I0
tp565
((F-14.033249967245865
F-95.7576381825379
F-38.44795480511175
tp566
(lp567
F0.00037488305617154816
aF0.0007496812375331302
aF0.9999996487203064
atp568
s(I4
I39
I0
tp569
((F45.552690693337354
F8.764419603511215
F3.3375200791674615
tp570
(lp571
F-0.635542690954342
aF0.31110346788926135
aF-0.706611718160539
atp572
s(I7
I87
I0
tp573
((F-34.94574980340076
F-16.550260042937225
F-9.276105207375167
tp574
(lp575
F-0.001054953099059424
aF0.0006278208377989784
aF0.9999992464571933
atp576
s(I2
I40
I0
tp577
((F78.01346871190799
F56.60312569655571
F17.92779318375551
tp578
(lp579
F0.6337521260759112
aF0.3127862115106926
aF-0.7074765215772538
atp580
s(I1
I95
I0
tp581
((F5.541879646187226
F95.59069071562863
F97.57415546918583
tp582
(lp583
F5.44964885350935e-05
aF0.00038857940422512056
aF0.9999999230180867
atp584
s(I4
I86
I0
tp585
((F46.093593891615456
F8.523054268598116
F-24.58687484288066
tp586
(lp587
F0.0008287419167781277
aF0.0003021323745126147
aF0.9999996109513561
atp588
s(I7
I4
I0
tp589
((F-35.33638839007108
F-16.265598756768213
F-155.68172309061902
tp590
(lp591
F-0.6846962276807234
aF0.17270476387918332
aF-0.7080707170426007
atp592
s(I3
I97
I0
tp593
((F-8.93961653768747
F36.46888594636221
F135.20404547906628
tp594
(lp595
F-0.0002516873838552375
aF-0.00026618986267967906
aF0.9999999328982067
atp596
s(I8
I55
I0
tp597
((F12.822060489741489
F-40.64452709964098
F91.3289830735157
tp598
(lp599
F0.27347720682210214
aF-0.6518924530920095
aF-0.7072810240282594
atp600
s(I5
I27
I0
tp601
((F-57.7648571918844
F77.22699995647645
F-54.824296504521044
tp602
(lp603
F-0.6064941947872714
aF-0.3651068704358663
aF-0.7063014688147454
atp604
s(I10
I21
I0
tp605
((F61.56077840704711
F-79.00404192290944
F-83.04033103429765
tp606
(lp607
F0.3518109575184065
aF0.6141269408710011
aF-0.7064539267824957
atp608
s(I7
I53
I0
tp609
((F-34.802687363328914
F-16.069964347854693
F76.69277178736411
tp610
(lp611
F0.2569131075513346
aF0.6586736486318321
aF-0.7072090778308394
atp612
s(I3
I46
I0
tp613
((F-8.698760846720688
F37.04010352752448
F46.90773301719719
tp614
(lp615
F0.2472962019942389
aF0.6620191187243911
aF-0.7075134450472338
atp616
s(I12
I54
I0
tp617
((F-13.537838574598936
F-95.68977250610169
F76.5711463011612
tp618
(lp619
F0.7022864738810541
aF0.08388855755920196
aF-0.7069345220841544
atp620
s(I11
I84
I0
tp621
((F-77.46183218308761
F-59.6207262203211
F-52.97795516910992
tp622
(lp623
F0.0001026672139422865
aF0.0011916434543565511
aF0.9999992847224046
atp624
s(I1
I57
I0
tp625
((F5.236590557113232
F95.10651407383239
F81.90540835732963
tp626
(lp627
F-0.37792027951697976
aF-0.5980080512037049
aF-0.7067974483721308
atp628
s(I8
I85
I0
tp629
((F12.644439602463535
F-40.04072663237457
F-38.1748447844293
tp630
(lp631
F-0.00022554723484536962
aF0.0007812314005467654
aF0.9999996694029172
atp632
s(I11
I5
I0
tp633
((F-77.91660553327893
F-59.41616907282196
F-155.7369526249804
tp634
(lp635
F-0.6902858226076664
aF0.1527627345653241
aF-0.7072262933707865
atp636
s(I12
I57
I0
tp637
((F-14.120725123351804
F-96.3361546624451
F91.09312127107069
tp638
(lp639
F-0.0024531185809865816
aF-0.7072563522540277
aF-0.7069529223403452
atp640
s(I4
I12
I0
tp641
((F46.68441635205636
F8.85999347460438
F-127.45625148034424
tp642
(lp643
F0.6163704367071767
aF0.347963761770375
aF-0.7064054821757926
atp644
s(I2
I5
I0
tp645
((F78.01952120614988
F56.890077091624335
F-156.36101711475067
tp646
(lp647
F0.49592405488523317
aF0.5036783715264562
aF-0.7073665456060566
atp648
s(I12
I91
I0
tp649
((F-14.09558813268086
F-95.75835328392486
F48.665005373505664
tp650
(lp651
F0.0005667176200516766
aF-0.00015542015030635718
aF0.9999998273378431
atp652
s(I4
I51
I0
tp653
((F45.46446916257082
F8.571401473632704
F61.45641584731402
tp654
(lp655
F-0.70025110194649
aF0.10092197433170311
aF-0.7067270684781485
atp656
s(I7
I99
I0
tp657
((F-35.04866159449466
F-16.639687460516598
F164.96083550599678
tp658
(lp659
F0.0002832558066555395
aF1.0403259798389975e-05
aF0.9999999598289593
atp660
s(I3
I68
I0
tp661
((F-8.49318381735975
F36.10344505318653
F148.59102222406818
tp662
(lp663
F0.5503895472772499
aF-0.4438817736504368
aF-0.7071352892261044
atp664
s(I2
I84
I0
tp665
((F77.53767157439688
F56.395516375110674
F-53.583874937806286
tp666
(lp667
F-0.0007435753017618431
aF0.0006442388861369141
aF0.999999516025897
atp668
s(I1
I67
I0
tp669
((F5.448622704183435
F95.00755677856205
F140.04807457529614
tp670
(lp671
F-0.10387870530054527
aF-0.6993347822059911
aF-0.707205823634097
atp672
s(I4
I98
I0
tp673
((F46.002899344532125
F8.468725454574269
F149.7600955095454
tp674
(lp675
F-0.00021580516641264306
aF0.00016331834952700705
aF0.9999999633776228
atp676
s(I7
I16
I0
tp677
((F-35.20591894956215
F-16.015099307194305
F-97.55571168622328
tp678
(lp679
F-0.43414263258949515
aF0.5570584451200626
aF-0.7079590830610769
atp680
s(I12
I24
I0
tp681
((F-14.556421333252729
F-95.57505892715562
F-68.62967286799221
tp682
(lp683
F-0.6710086213653144
aF0.22405403444939384
aF-0.7067865446514741
atp684
s(I8
I11
I0
tp685
((F12.843638461537921
F-40.53195037116711
F-126.4840633886497
tp686
(lp687
F0.18962938656328968
aF-0.6808766316854591
aF-0.707423287838543
atp688
s(I12
I45
I0
tp689
((F-13.53969262668761
F-95.94337229142911
F33.01219771391561
tp690
(lp691
F0.670160046915567
aF-0.22627589872412002
aF-0.7068838158953117
atp692
s(I5
I23
I0
tp693
((F-56.87153059951106
F77.96849993052729
F-69.35405481209773
tp694
(lp695
F0.46991745356013115
aF0.5281924309072774
aF-0.7072413610443206
atp696
s(I1
I28
I0
tp697
((F5.565716994833565
F96.23822790612712
F-48.80508778100557
tp698
(lp699
F-0.03528865325208895
aF0.7058908927000737
aF-0.7074409929843951
atp700
s(I3
I34
I0
tp701
((F-9.203071846946841
F36.99565828344885
F-11.188337601746298
tp702
(lp703
F-0.4159569154272753
aF0.5711810667177724
aF-0.707624217739454
atp704
s(I11
I88
I0
tp705
((F-77.51362651632735
F-59.660852196777796
F5.0930150487174615
tp706
(lp707
F-0.00044166602596183165
aF-0.0008943330021929742
aF0.9999995025496776
atp708
s(I1
I45
I0
tp709
((F5.541532537601597
F95.04217232291285
F23.816517446638045
tp710
(lp711
F-0.0271370003780358
aF-0.7070165229863301
aF-0.7066761772090543
atp712
s(I11
I9
I0
tp713
((F-76.80983973363618
F-59.40685580303807
F-141.21910697835165
tp714
(lp715
F0.6849414947995072
aF0.17939584096015807
aF-0.7061673179551815
atp716
s(I4
I24
I0
tp717
((F46.20808307324114
F7.971423639723525
F-69.32235002379684
tp718
(lp719
F0.09847899020215072
aF-0.7008384963777148
aF-0.7064894128603687
atp720
s(I2
I49
I0
tp721
((F77.84255766214119
F56.770422505996976
F61.568840036697566
tp722
(lp723
F0.45006310725717164
aF0.5449940383021801
aF-0.7074070240682527
atp724
s(I5
I65
I0
tp725
((F-57.00813090226711
F76.99521709729015
F134.02292828761756
tp726
(lp727
F0.4744201858543516
aF-0.5242719647930968
aF-0.7071523132861183
atp728
s(I4
I79
I0
tp729
((F46.180249946070035
F8.575019721724857
F-126.3148250940867
tp730
(lp731
F-0.0005952036284995907
aF-0.0009624144996718527
aF0.9999993597452808
atp732
s(I3
I88
I0
tp733
((F-8.87267256099949
F36.52073387101518
F4.480075159022363
tp734
(lp735
F0.0007722893018893676
aF0.0004217347917981187
aF0.9999996128544248
atp736
s(I10
I89
I0
tp737
((F61.195851718341146
F-79.55496657651247
F19.754095259288533
tp738
(lp739
F-0.000473431356521364
aF0.0005912872629140325
aF0.9999997131210205
atp740
s(I2
I64
I0
tp741
((F77.21262384710099
F56.82544016658767
F134.21994165968954
tp742
(lp743
F-0.29083175661103855
aF0.6443487172513632
aF-0.7072705422418357
atp744
s(I10
I10
I0
tp745
((F60.76719977377252
F-79.669923487701
F-126.59238481767943
tp746
(lp747
F-0.6669980649887918
aF-0.23272608011699863
aF-0.7077797347583384
atp748
s(I7
I28
I0
tp749
((F-34.7204110148823
F-15.982874195008208
F-39.465669896306736
tp750
(lp751
F0.2388277940015317
aF0.6647791126542391
aF-0.7078347379092131
atp752
s(I3
I9
I0
tp753
((F-8.17784442600896
F36.71411212236353
F-141.95914664583506
tp754
(lp755
F0.6980008761654403
aF0.11825679679121699
aF-0.7062648985224725
atp756
s(I8
I31
I0
tp757
((F12.09198745757385
F-39.862637886676566
F-24.801091671921313
tp758
(lp759
F-0.6682574033227895
aF0.2302269903840626
aF-0.7074090583269197
atp760
s(I5
I35
I0
tp761
((F-57.03126113570306
F78.00087905948067
F-11.235077799247847
tp762
(lp763
F0.33963830996057437
aF0.6200683365753948
aF-0.7072206702181064
atp764
s(I3
I54
I0
tp765
((F-8.902560092486965
F35.908882429750975
F75.95938595749021
tp766
(lp767
F0.017350283344714352
aF-0.7072980940134576
aF-0.7067024648837643
atp768
s(I8
I78
I0
tp769
((F12.697243639724547
F-39.96266147217648
F-139.86279498030535
tp770
(lp771
F0.0009584900278278061
aF0.00036639159900564276
aF0.9999994735268928
atp772
s(I11
I44
I0
tp773
((F-77.32390891964224
F-59.13827319618167
F32.987946863216166
tp774
(lp775
F0.25886122555867985
aF0.6579434850852267
aF-0.7071783624632222
atp776
s(I11
I29
I0
tp777
((F-78.03408259566822
F-59.48321621817877
F-39.60704049970673
tp778
(lp779
F-0.6830115831659661
aF0.18265842277570069
aF-0.70719946114955
atp780
s(I4
I20
I0
tp781
((F46.34341474349458
F8.010387083328169
F-83.86685634452624
tp782
(lp783
F0.2477630324776921
aF-0.6622637759431838
aF-0.707121043959897
atp784
s(I7
I74
I0
tp785
((F-35.49172020632159
F-16.26731923892794
F178.35681608899495
tp786
(lp787
F-0.5384195782672507
aF0.4583347109901878
aF-0.7071305752405682
atp788
s(I2
I61
I0
tp789
((F77.83375254735802
F55.866942325898435
F119.68991737863416
tp790
(lp791
F0.4646318866320103
aF-0.5327697328262273
aF-0.7073002344896041
atp792
s(I5
I93
I0
tp793
((F-57.37040344091656
F77.44512868111815
F77.0679752884621
tp794
(lp795
F-0.0004985906141819304
aF0.0005165448931912004
aF0.9999997422943532
atp796
s(I4
I91
I0
tp797
((F46.04401494884223
F8.493205506766571
F48.06410532695372
tp798
(lp799
F-0.0005302008559051786
aF-0.00039662945606886747
aF0.9999997807860395
atp800
s(I12
I1
I0
tp801
((F-14.482199738638883
F-95.75461974345353
F-170.2954844632709
tp802
(lp803
F-0.7062926344491451
aF0.005096669563901772
aF-0.7079016446387468
atp804
s(I8
I36
I0
tp805
((F13.142198497993377
F-40.33268847819909
F-10.2854260323179
tp806
(lp807
F0.6242202492455395
aF-0.3333020059212344
aF-0.7065825169650872
atp808
s(I2
I76
I0
tp809
((F77.62541495515325
F56.49173036790444
F-169.74279523727455
tp810
(lp811
F-0.0011101945449349864
aF0.000578231679583726
aF0.9999992165577917
atp812
s(I5
I14
I0
tp813
((F-57.761203571541955
F77.7461790818711
F-112.93802610404055
tp814
(lp815
F-0.674125220908777
aF0.21294467422229443
aF-0.7072550828767888
atp816
s(I10
I6
I0
tp817
((F61.749183524256296
F-79.0515791380626
F-155.6311975353442
tp818
(lp819
F0.4991694085973205
aF0.5018936194438506
aF-0.7063516803138168
atp820
s(I7
I40
I0
tp821
((F-34.690542688365895
F-16.067173817159073
F18.643394275652554
tp822
(lp823
F0.34180377549395785
aF0.6183345665768389
aF-0.7076952330165217
atp824
s(I3
I29
I0
tp825
((F-9.213223695509441
F36.10370568401049
F-40.24298426728819
tp826
(lp827
F-0.456005177465763
aF-0.5402976701583653
aF-0.707204147149789
atp828
s(I8
I19
I0
tp829
((F12.15861525238688
F-40.2880693231823
F-82.87011359705366
tp830
(lp831
F-0.6194514406267433
aF-0.3402643862879252
aF-0.7074602887297308
atp832
s(I11
I67
I0
tp833
((F-77.9134192055808
F-60.201309902662615
F149.1268179770741
tp834
(lp835
F-0.3908601414366139
aF-0.5890294944017969
aF-0.7072995154536116
atp836
s(I5
I63
I0
tp837
((F-56.92257288721339
F77.08888978098003
F119.49623758042799
tp838
(lp839
F0.573068638650054
aF-0.41480473524147743
aF-0.706773915065505
atp840
s(I1
I52
I0
tp841
((F5.232048353176651
F95.1175652161869
F67.36198807888377
tp842
(lp843
F-0.3880342172003216
aF-0.590880493588844
aF-0.7073115922830175
atp844
s(I8
I66
I0
tp845
((F12.91937189863529
F-40.59988195364758
F134.87529563459702
tp846
(lp847
F0.40342530029979184
aF-0.5809838958001344
aF-0.7068986772507934
atp848
s(I11
I48
I0
tp849
((F-78.10942414538113
F-59.80952000123398
F47.53043452495058
tp850
(lp851
F-0.6906417898421005
aF-0.15418614297815156
aF-0.7065695658866302
atp852
s(I2
I22
I0
tp853
((F76.98671285636556
F56.268998134645244
F-69.24226293929951
tp854
(lp855
F-0.686496166351727
aF-0.16743281755471237
aF-0.707593997423715
atp856
s(I4
I32
I0
tp857
((F46.301477645902196
F7.983752874491984
F-25.7288846287488
tp858
(lp859
F0.25489017551469556
aF-0.6595556747412128
aF-0.7071190213413518
atp860
s(I7
I86
I0
tp861
((F-34.931664152995836
F-16.538091348287708
F-23.792095287793018
tp862
(lp863
F-0.0008893026942996572
aF0.0009365154877947809
aF0.9999991660393818
atp864
s(I2
I41
I0
tp865
((F77.45706570563743
F55.770859112720245
F17.927960651342346
tp866
(lp867
F-0.04693358120027544
aF-0.705382205764344
aF-0.7072716470683282
atp868
s(I12
I93
I0
tp869
((F-14.112006434441355
F-95.75859842440605
F77.71300542631343
tp870
(lp871
F-0.00019158414030249612
aF-0.00045056063033771217
aF0.9999998801453106
atp872
s(I1
I94
I0
tp873
((F5.545616155714015
F95.59555881360757
F83.04715544924966
tp874
(lp875
F0.00019100601675789208
aF0.00039667738290184804
aF0.999999903081873
atp876
s(I4
I87
I0
tp877
((F46.081423523102785
F8.516828985918437
F-10.047874807701646
tp878
(lp879
F-0.0006216265952323262
aF0.0005668496935211034
aF0.9999996461308379
atp880
s(I7
I7
I0
tp881
((F-35.35055073267176
F-16.585682984500636
F-141.15572113882354
tp882
(lp883
F-0.6778104513349144
aF-0.1981080892039763
aF-0.7080439089866597
atp884
s(I3
I96
I0
tp885
((F-8.934356515026593
F36.47282404171119
F120.67905545240455
tp886
(lp887
F0.00041833527579506944
aF0.00011190548674021555
aF0.9999999062363751
atp888
s(I8
I56
I0
tp889
((F12.025298172984549
F-40.03837381052108
F91.32900921843702
tp890
(lp891
F-0.7012564215059848
aF0.08965616485783763
aF-0.7072490391648509
atp892
s(I5
I26
I0
tp893
((F-56.763891473553485
F77.24486183216732
F-54.82506078382312
tp894
(lp895
F0.6180553677856262
aF-0.34325522091042776
aF-0.7072364637581322
atp896
s(I10
I18
I0
tp897
((F61.86053488304606
F-79.43243668123796
F-97.55930324517522
tp898
(lp899
F0.7032888193106998
aF0.07961445532842448
aF-0.7064321447494588
atp900
s(I7
I52
I0
tp901
((F-35.58359068244954
F-16.696416208708797
F76.69250305211926
tp902
(lp903
F-0.6984191284371661
aF-0.10770759513439322
aF-0.7075378399657752
atp904
s(I3
I17
I0
tp905
((F-9.160223102659074
F37.028948034331734
F-98.36795690635245
tp906
(lp907
F-0.4519647762861089
aF0.5436620258361603
aF-0.7072195151863173
atp908
s(I11
I87
I0
tp909
((F-77.50151849868871
F-59.65211144059276
F-9.427975004943164
tp910
(lp911
F-0.00027364838662369815
aF-0.0010135768176837226
aF0.9999994488891457
atp912
s(I1
I56
I0
tp913
((F6.122934661443651
F95.57196654557629
F81.90505442577023
tp914
(lp915
F0.7064048530717956
aF-0.028588329594754193
aF-0.7072304369635095
atp916
s(I8
I86
I0
tp917
((F12.638123008902767
F-40.05040355030678
F-23.658844756785584
tp918
(lp919
F-0.00019214079502327693
aF0.0007543134682336232
aF0.9999996970465074
atp920
s(I11
I4
I0
tp921
((F-77.17725018802139
F-60.091154498483775
F-155.73754303406395
tp922
(lp923
F0.21421794614369408
aF-0.6729929257937939
aF-0.7079485810293615
atp924
s(I12
I51
I0
tp925
((F-13.636307014116028
F-96.09739552495421
F62.04916069345154
tp926
(lp927
F0.5728450487962548
aF-0.4148699130590571
aF-0.7069169012748152
atp928
s(I4
I13
I0
tp929
((F45.61072366005283
F8.724205736031763
F-112.92137819352592
tp930
(lp931
F-0.6800873047818886
aF0.19115581488385966
aF-0.7077716526610784
atp932
s(I2
I2
I0
tp933
((F77.72683921309545
F57.06032624808222
F-170.88501231162854
tp934
(lp935
F0.12331319351540761
aF0.6960010487508748
aF-0.707372883593027
atp936
s(I4
I60
I0
tp937
((F46.54821408078351
F8.249548526007857
F105.03932470730979
tp938
(lp939
F0.6504957872031374
aF-0.2779419040708426
aF-0.7068263781102436
atp940
s(I7
I98
I0
tp941
((F-35.04500248943532
F-16.636327457679727
F150.4248354749525
tp942
(lp943
F0.0002823608683744976
aF0.0002504060937951891
aF0.9999999287845616
atp944
s(I3
I71
I0
tp945
((F-9.337290698527795
F36.03831417962374
F163.14002795421425
tp946
(lp947
F-0.47856697731442277
aF-0.5205220751722202
aF-0.707128289267614
atp948
s(I2
I85
I0
tp949
((F77.52942872254243
F56.383720241015
F-39.0478749003405
tp950
(lp951
F0.00048357284482968194
aF-0.0008118952096077515
aF0.9999995534916365
atp952
s(I10
I41
I0
tp953
((F61.62794738280536
F-79.17113659072265
F18.612072545521187
tp954
(lp955
F0.5282854085541698
aF0.46997334947817704
aF-0.7071347664264691
atp956
s(I1
I66
I0
tp957
((F5.854563888227858
F96.06458915924622
F125.51532200433212
tp958
(lp959
F0.38991907292376804
aF0.5901280341513674
aF-0.706903119160548
atp960
s(I4
I99
I0
tp961
((F46.00008614133185
F8.46659365330197
F164.28309552528367
tp962
(lp963
F-7.900836637996315e-05
aF-0.00018848292201270782
aF0.9999999791159329
atp964
s(I7
I19
I0
tp965
((F-34.767592574273294
F-15.916804432453773
F-83.04070729869272
tp966
(lp967
F0.12255441306853936
aF0.6955692131321676
aF-0.707929294195489
atp968
s(I12
I25
I0
tp969
((F-13.493716012530058
F-95.99447195026096
F-54.1114499429018
tp970
(lp971
F0.644862149049115
aF-0.2885795670650368
aF-0.7077249763829966
atp972
s(I8
I12
I0
tp973
((F12.12818984408841
F-39.83167572633465
F-126.48322816675864
tp974
(lp975
F-0.6856276532089709
aF0.1758170535293141
aF-0.7064015039928988
atp976
s(I12
I44
I0
tp977
((F-14.200588563331621
F-95.19139585501398
F33.01219967097268
tp978
(lp979
F-0.13835898156136922
aF0.6936681107595981
aF-0.7068814216942687
atp980
s(I2
I100
I0
tp981
((F77.44307883081092
F56.290914184521625
F178.87007553652074
tp982
(lp983
F-6.631888767200041e-05
aF0.00012204829695851828
aF0.9999999903530091
atp984
s(I5
I22
I0
tp985
((F-57.82140091989913
F77.65227507201871
F-69.35451666236213
tp986
(lp987
F-0.6921236273996
aF0.141333015974193
aF-0.7078063739405418
atp988
s(I1
I19
I0
tp989
((F6.051232683585113
F95.31005291215706
F-92.38011002669964
tp990
(lp991
F0.5323100931411681
aF-0.4648843396543662
aF-0.7074803993639435
atp992
s(I3
I37
I0
tp993
((F-8.642680802626273
F37.05014013173877
F3.337673827533308
tp994
(lp995
F0.28189745205532013
aF0.6479497374797804
aF-0.7075980244634675
atp996
s(I11
I91
I0
tp997
((F-77.54450520169667
F-59.683211633730934
F48.671995203743336
tp998
(lp999
F0.000669648609553011
aF0.00048623003879175424
aF0.9999996575754859
atp1000
s(I1
I44
I0
tp1001
((F6.075039450010081
F95.8892981292206
F23.816024802179527
tp1002
(lp1003
F0.6255383552880178
aF0.32933019355034115
aF-0.7072788627406141
atp1004
s(I11
I8
I0
tp1005
((F-77.77522356398549
F-59.141742025566145
F-141.2199701667928
tp1006
(lp1007
F-0.4960783198855615
aF0.5037275880819778
aF-0.7072233151873824
atp1008
s(I10
I69
I0
tp1009
((F61.46566683174751
F-80.06965267274018
F149.29021521700088
tp1010
(lp1011
F0.4005864552488426
aF-0.5828997644874581
aF-0.7069358927311817
atp1012
s(I4
I25
I0
tp1013
((F46.50552551866531
F8.963166504513083
F-54.78233900642135
tp1014
(lp1015
F0.476439613690054
aF0.5217128326235441
aF-0.7076870881843119
atp1016
s(I2
I14
I0
tp1017
((F78.03249141253582
F56.79947958382627
F-112.79303051431134
tp1018
(lp1019
F0.5539798470487192
aF0.439053009665209
aF-0.7073462969209633
atp1020
s(I5
I64
I0
tp1021
((F-57.21912261594571
F77.97385618933549
F134.02277246780886
tp1022
(lp1023
F0.2162996468990889
aF0.6729639146523688
aF-0.7073429382747018
atp1024
s(I4
I72
I0
tp1025
((F46.45310586587766
F8.825889476784596
F163.14119901491154
tp1026
(lp1027
F0.554155380711912
aF0.43942101158650304
aF-0.7069801896830846
atp1028
s(I3
I91
I0
tp1029
((F-8.90055496486275
F36.49917457362699
F48.05006528090962
tp1030
(lp1031
F0.0006198854376543202
aF0.0003824374042800073
aF0.9999997347418028
atp1032
s(I2
I65
I0
tp1033
((F78.02539583904218
F56.240928675151736
F134.22001580871756
tp1034
(lp1035
F0.7034875981623319
aF-0.07072401505946677
aF-0.7071798306835835
atp1036
s(I10
I43
I0
tp1037
((F60.75571867963663
F-79.1771041210095
F33.13275065567268
tp1038
(lp1039
F-0.5279745890137736
aF0.4697298693091434
aF-0.707528574147046
atp1040
s(I10
I11
I0
tp1041
((F61.42136638631746
F-78.91208592141629
F-126.59186891088393
tp1042
(lp1043
F0.13328852282390655
aF0.6943882488761651
aF-0.7071485908252337
atp1044
s(I7
I31
I0
tp1045
((F-35.505423135092315
F-16.47818646395126
F-24.93466258790977
tp1046
(lp1047
F-0.7025320557712694
aF0.0739319031477353
aF-0.7078013734874692
atp1048
s(I3
I8
I0
tp1049
((F-9.11610838973138
F37.06327127274608
F-141.95993536798642
tp1050
(lp1051
F-0.44984135790315183
aF0.5454069749032616
aF-0.707229796068238
atp1052
s(I10
I44
I0
tp1053
((F61.736110091671435
F-79.37979742307289
F33.13307393330115
tp1054
(lp1055
F0.6714050228657057
aF0.2217613426824165
aF-0.7071330865985505
atp1056
s(I5
I34
I0
tp1057
((F-57.886233249196266
F77.48003884157333
F-11.235468387295441
tp1058
(lp1059
F-0.706307328753258
aF-0.017110988678610668
aF-0.7076985031889481
atp1060
s(I1
I7
I0
tp1061
((F5.07095075108009
F95.72850259399866
F-150.49811821807134
tp1062
(lp1063
F-0.706643731193093
aF-0.007751674703398326
aF-0.7075270657047662
atp1064
s(I3
I57
I0
tp1065
((F-8.4028948123796
F36.7330960714703
F90.483354418629
tp1066
(lp1067
F0.6369380866883974
aF0.3079398284558819
aF-0.7067410669943311
atp1068
s(I8
I79
I0
tp1069
((F12.689185249617367
F-39.97549923203769
F-125.34180495244118
tp1070
(lp1071
F0.0009800999195372796
aF-0.00019136826226468913
aF0.9999995013910437
atp1072
s(I11
I47
I0
tp1073
((F-77.15428731741667
F-60.10946232245806
F47.529940759704914
tp1074
(lp1075
F0.47784216866118795
aF-0.521126020663893
aF-0.7071736225540292
atp1076
s(I10
I73
I0
tp1077
((F60.56635890611142
F-79.70858082553286
F178.3050100558521
tp1078
(lp1079
F-0.6935904635498782
aF-0.13718223025062065
aF-0.7071868950822907
atp1080
s(I11
I28
I0
tp1081
((F-77.32503032197201
F-60.18996699755644
F-39.60749768242522
tp1082
(lp1083
F0.18442037348810814
aF-0.6819579590698517
aF-0.7077587639187446
atp1084
s(I4
I21
I0
tp1085
((F45.57013686443133
F8.646227500610621
F-83.86632202104602
tp1086
(lp1087
F-0.6982404831403165
aF0.11560312857728156
aF-0.7064673696407512
atp1088
s(I7
I69
I0
tp1089
((F-35.58126246386382
F-16.853073427482286
F149.28304108698194
tp1090
(lp1091
F-0.6558485407636637
aF-0.2649873374251582
aF-0.7068552911186972
atp1092
s(I2
I58
I0
tp1093
((F77.36034160074269
F56.876876654854186
F105.17590416401936
tp1094
(lp1095
F-0.11991176537661911
aF0.6966400726772157
aF-0.7073286207022491
atp1096
s(I5
I92
I0
tp1097
((F-57.36202453470105
F77.4518875717763
F62.545975239601376
tp1098
(lp1099
F-0.0006296843992352767
aF0.0004654355514822988
aF0.9999996934336054
atp1100
s(I4
I68
I0
tp1101
((F46.34262623894574
F8.936339145437614
F148.61809241264518
tp1102
(lp1103
F0.4154621555633457
aF0.5721763745437172
aF-0.7071105951042356
atp1104
s(I12
I2
I0
tp1105
((F-13.611612568312921
F-95.26032324887001
F-170.29450757736277
tp1106
(lp1107
F0.3587559671972524
aF0.6098032495581608
aF-0.7067065535486929
atp1108
s(I8
I37
I0
tp1109
((F12.583516821156081
F-39.492811670415904
F4.230921612143902
tp1110
(lp1111
F-0.05285184570332528
aF0.70485414506816
aF-0.7073806023534892
atp1112
s(I2
I77
I0
tp1113
((F77.61382193270765
F56.478971214659396
F-155.2188052003262
tp1114
(lp1115
F-0.0005732169909183496
aF0.001079078434887751
aF0.9999992535057277
atp1116
s(I5
I13
I0
tp1117
((F-57.08422481855905
F77.00864839859787
F-112.93853526007751
tp1118
(lp1119
F0.1540690125749166
aF-0.6893268612027651
aF-0.7078779681474301
atp1120
s(I10
I7
I0
tp1121
((F61.8989723754712
F-79.38900580287964
F-141.11039000937808
tp1122
(lp1123
F0.6992719170904321
aF0.10020155547632333
aF-0.707798300541049
atp1124
s(I7
I43
I0
tp1125
((F-34.90460757523488
F-16.01006596237039
F33.151424975128975
tp1126
(lp1127
F0.09437636340965354
aF0.7002240066320298
aF-0.7076577156830526
atp1128
s(I3
I28
I0
tp1129
((F-8.27184000923262
F36.44436476250485
F-40.24336826116769
tp1130
(lp1131
F0.6956536257603158
aF-0.12354620912685257
aF-0.7076739130255619
atp1132
s(I8
I20
I0
tp1133
((F12.678176055729637
F-39.432319027351696
F-82.8700605312647
tp1134
(lp1135
F0.01616268961913132
aF0.7066332558993627
aF-0.7073953697341689
atp1136
s(I11
I66
I0
tp1137
((F-77.81340223733605
F-60.249357265020535
F134.61019765797755
tp1138
(lp1139
F-0.2740900546184635
aF-0.6521187857445748
aF-0.7068350099126874
atp1140
s(I5
I62
I0
tp1141
((F-57.331224014419604
F78.00281327688072
F119.49592155347
tp1142
(lp1143
F0.07313787188955245
aF0.703260146137645
aF-0.7071605323757298
atp1144
s(I1
I11
I0
tp1145
((F5.129485924835535
F95.99333320703181
F-135.9610076057611
tp1146
(lp1147
F-0.6245154878207803
aF0.33105076835376496
aF-0.7073795263112687
atp1148
s(I8
I67
I0
tp1149
((F12.451374911308449
F-39.56660851665811
F149.39004967899336
tp1150
(lp1151
F-0.16668551105924442
aF0.6870841980582879
aF-0.7071995794551336
atp1152
s(I11
I51
I0
tp1153
((F-77.75256934704066
F-60.233684445861854
F62.0384020756328
tp1154
(lp1155
F-0.24233068056754015
aF-0.6648151272795854
aF-0.7066092893501341
atp1156
s(I10
I75
I0
tp1157
((F61.51398147855252
F-80.0314793265361
F178.30514514957622
tp1158
(lp1159
F0.4657007941982455
aF-0.5322059667460538
aF-0.7070216257251412
atp1160
s(I2
I23
I0
tp1161
((F77.71093597961953
F56.96019479191955
F-69.24204222264598
tp1162
(lp1163
F0.19949532421160115
aF0.6781551469645339
aF-0.7073239797032329
atp1164
s(I4
I33
I0
tp1165
((F45.521482665464646
F8.61133523707258
F-25.728427826984444
tp1166
(lp1167
F-0.6993308278759798
aF0.10820858881213338
aF-0.7065601846195294
atp1168
s(I7
I81
I0
tp1169
((F-34.85100422789492
F-16.469554416330993
F-96.41301570997939
tp1170
(lp1171
F7.062240740976057e-05
aF0.0015834474445171073
aF0.9999987438525441
atp1172
s(I2
I38
I0
tp1173
((F77.48606689998087
F55.77841400845409
F3.3819628296246265
tp1174
(lp1175
F-0.02107353655971555
aF-0.706618153405751
aF-0.707281196791144
atp1176
s(I1
I93
I0
tp1177
((F5.54895974487772
F95.60054442534465
F68.50415542797509
tp1178
(lp1179
F-0.00048540481928498874
aF-2.7710879950295085e-05
aF0.9999998818071273
atp1180
s(I4
I80
I0
tp1181
((F46.16621371205474
F8.56840462580385
F-111.77883505815635
tp1182
(lp1183
F-0.0007514376432138521
aF0.0008024895791984643
aF0.9999993956757892
atp1184
s(I7
I6
I0
tp1185
((F-34.61895804973301
F-16.963841258080265
F-155.67995783569995
tp1186
(lp1187
F0.19298518872351605
aF-0.6815028617095087
aF-0.7059111604267914
atp1188
s(I3
I99
I0
tp1189
((F-8.946022218073267
F36.463699714234735
F164.2820455211313
tp1190
(lp1191
F0.00014263222870238983
aF-0.0001724219894343375
aF0.9999999749633521
atp1192
s(I8
I57
I0
tp1193
((F12.948623433943794
F-39.65143412307725
F91.32938438940846
tp1194
(lp1195
F0.42831027964596025
aF0.5630258480793382
aF-0.7067900669535059
atp1196
s(I5
I25
I0
tp1197
((F-57.279843799628
F78.10279248159031
F-54.82550575516234
tp1198
(lp1199
F-0.013144266360145016
aF0.7063097963811843
aF-0.7077808275150038
atp1200
s(I10
I19
I0
tp1201
((F61.56368408106573
F-80.00516253774185
F-83.04136622336682
tp1202
(lp1203
F0.3553656665178975
aF-0.6106121171454822
aF-0.7077203441016814
atp1204
s(I7
I55
I0
tp1205
((F-35.54133378671031
F-16.86683285593972
F91.20152787421421
tp1206
(lp1207
F-0.6364137096903344
aF-0.30729144208930514
aF-0.7074952718830437
atp1208
s(I3
I16
I0
tp1209
((F-8.989740404138502
F36.04244539794354
F-98.368401771339
tp1210
(lp1211
F-0.2434016755961032
aF-0.6631938631747459
aF-0.707763748834571
atp1212
s(I11
I86
I0
tp1213
((F-77.48772111479138
F-59.642260421239826
F-23.94697505924296
tp1214
(lp1215
F0.0009937355106154936
aF-0.0004725574645353423
aF0.9999993945894056
atp1216
s(I10
I25
I0
tp1217
((F61.58060165195093
F-79.99459489659375
F-54.004341047335856
tp1218
(lp1219
F0.40579341427234245
aF-0.5783809072363375
aF-0.7076773495581627
atp1220
s(I1
I63
I0
tp1221
((F5.941032426293532
F95.17102272052944
F110.96935210245465
tp1222
(lp1223
F0.492421293641739
aF-0.5078004713517102
aF-0.7068662892394694
atp1224
s(I8
I87
I0
tp1225
((F12.631571019406692
F-40.0600668750526
F-9.143854729415125
tp1226
(lp1227
F-0.0006741302910327281
aF0.0003109887230070455
aF0.9999997244171445
atp1228
s(I11
I7
I0
tp1229
((F-77.52212600798975
F-60.11034581237982
F-141.22054577054678
tp1230
(lp1231
F-0.18644683520403577
aF-0.6812314187326355
aF-0.7079274904776052
atp1232
s(I4
I14
I0
tp1233
((F46.58096762906462
F8.970941137943555
F-112.92084711795223
tp1234
(lp1235
F0.5068782486662012
aF0.493004042999195
aF-0.707121951727941
atp1236
s(I12
I9
I0
tp1237
((F-13.598080916610343
F-96.22754800163557
F-141.26255725969668
tp1238
(lp1239
F0.41424129619127475
aF-0.5735293500107276
aF-0.7067306652509461
atp1240
s(I2
I3
I0
tp1241
((F78.06959466079752
F56.11970419406043
F-170.8840878882056
tp1242
(lp1243
F0.5426292858310756
aF-0.45472599784503
aF-0.7062419734356622
atp1244
s(I4
I61
I0
tp1245
((F46.428261299392034
F8.073237502908341
F119.56590036744092
tp1246
(lp1247
F0.5099018048129716
aF-0.4895533389951919
aF-0.7073455150964999
atp1248
s(I7
I93
I0
tp1249
((F-35.013076624692985
F-16.60813697792082
F77.83485522518731
tp1250
(lp1251
F-0.000681774391699467
aF0.0004208858542839374
aF0.9999996790193367
atp1252
s(I3
I70
I0
tp1253
((F-8.382067108557749
F36.33798047070741
F163.13994337760028
tp1254
(lp1255
F0.6900231230612315
aF-0.1539198839644706
aF-0.7072317576022646
atp1256
s(I2
I82
I0
tp1257
((F77.55899975275679
F56.4176199407093
F-82.61285501301472
tp1258
(lp1259
F0.0005746030574152494
aF0.0008878044848138602
aF0.9999994408171052
atp1260
s(I5
I100
I0
tp1261
((F-57.40635705384557
F77.41522891136447
F178.74496553117638
tp1262
(lp1263
F5.7796456316355226e-05
aF-0.00016322486023932377
aF0.9999999850086072
atp1264
s(I1
I65
I0
tp1265
((F4.958964977673531
F95.61720281937596
F125.51508896125188
tp1266
(lp1267
F-0.7057280946839454
aF0.042809842572990746
aF-0.7071882166387136
atp1268
s(I7
I18
I0
tp1269
((F-35.06880400377577
F-17.006789307217332
F-97.55415107865429
tp1270
(lp1271
F-0.26640057728229155
aF-0.6561434992593377
aF-0.7060498854920757
atp1272
s(I12
I26
I0
tp1273
((F-14.48955343669877
F-96.09723014960628
F-54.11069027702388
tp1274
(lp1275
F-0.5734136218662034
aF-0.4142906736044161
aF-0.7067956253562142
atp1276
s(I8
I13
I0
tp1277
((F12.814833825397727
F-40.54930825583324
F-111.96812257539113
tp1278
(lp1279
F0.16487129633610165
aF-0.6872296461052758
aF-0.7074834762441246
atp1280
s(I5
I21
I0
tp1281
((F-57.156605392996426
F76.97601068315271
F-83.88222743109327
tp1282
(lp1283
F0.10317023734538247
aF-0.700413467965065
aF-0.7062413723503093
atp1284
s(I1
I18
I0
tp1285
((F6.199261375690185
F95.64390152832493
F-106.90426824420138
tp1286
(lp1287
F0.7043000040787717
aF-0.0697983060845393
aF-0.7064628091572629
atp1288
s(I3
I36
I0
tp1289
((F-9.097886940304306
F36.000074389293786
F-11.187418301240086
tp1290
(lp1291
F-0.28727705251144664
aF-0.6467845436580753
aF-0.7064995747948833
atp1292
s(I11
I90
I0
tp1293
((F-77.53594749177773
F-59.67585156822179
F34.13000515325302
tp1294
(lp1295
F-0.0007826414755039368
aF0.0004162955535140364
aF0.9999996070850893
atp1296
s(I10
I90
I0
tp1297
((F61.187187329573135
F-79.56068140641582
F34.27509529291774
tp1298
(lp1299
F-0.0001878201247854574
aF0.0006864573591649865
aF0.9999997467499153
atp1300
s(I1
I35
I0
tp1301
((F5.0071589838880755
F95.57553715823497
F-19.744991024580486
tp1302
(lp1303
F-0.7020731269609652
aF-0.08249422194083911
aF-0.7073104182363129
atp1304
s(I11
I11
I0
tp1305
((F-76.81651161271111
F-59.664881311342015
F-126.69497762792253
tp1306
(lp1307
F0.6963279102935689
aF-0.1223395914336283
aF-0.7072202384788238
atp1308
s(I4
I26
I0
tp1309
((F46.290011462695475
F7.985513459278991
F-54.781875516030595
tp1310
(lp1311
F0.2127865852856189
aF-0.6743167485750974
aF-0.7071200688098132
atp1312
s(I12
I15
I0
tp1313
((F-14.380778111850304
F-96.16165214498096
F-112.21060457679641
tp1314
(lp1315
F-0.50680981262849
aF-0.49360468858269946
aF-0.7067518837842962
atp1316
s(I2
I15
I0
tp1317
((F77.66492610398018
F55.86827227505728
F-112.79219862427408
tp1318
(lp1319
F0.10431216156602759
aF-0.7001563376031278
aF-0.7063285891591802
atp1320
s(I5
I79
I0
tp1321
((F-57.194549475590065
F77.58428528074728
F-126.31289548857558
tp1322
(lp1323
F-0.0007346252877886277
aF-0.001236855477211649
aF0.9999989652565722
atp1324
s(I4
I73
I0
tp1325
((F46.521791287492306
F8.709971965527984
F177.67202879943466
tp1326
(lp1327
F0.6406505392041028
aF0.2990842825043713
aF-0.707188432156761
atp1328
s(I3
I90
I0
tp1329
((F-8.89329514811834
F36.50553984391854
F33.52506524135151
tp1330
(lp1331
F-0.000780297816622712
aF2.7707693556313218e-05
aF0.9999996951837541
atp1332
s(I10
I78
I0
tp1333
((F61.32797378421128
F-79.47118923434346
F-139.9678251349087
tp1334
(lp1335
F0.0010586345125019995
aF-0.0004913705678582097
aF0.9999993189237351
atp1336
s(I10
I37
I0
tp1337
((F60.659658953929465
F-79.36047797923857
F4.096707114939363
tp1338
(lp1339
F-0.6678874742275497
aF0.2307689582555227
aF-0.7075818042287443
atp1340
s(I2
I94
I0
tp1341
((F77.46338244711842
F56.31214028683053
F91.78708540997377
tp1342
(lp1343
F0.00030729741894259686
aF-0.00042184939396547967
aF0.9999998638056833
atp1344
s(I12
I2103
I0
tp1345
((F-13.566449249996367
F-95.62805825417536
F120.14609011385164
tp1346
(lp1347
F0.6891265794445728
aF0.15895973066445113
aF-0.7069910618459813
atp1348
s(I10
I8
I0
tp1349
((F61.111347732239665
F-80.00698568953976
F-141.10985985951493
tp1350
(lp1351
F-0.26428297263003075
aF-0.6558153450323573
aF-0.7071497320920971
atp1352
s(I7
I30
I0
tp1353
((F-35.48519712191592
F-16.628902394345005
F-39.46433717369837
tp1354
(lp1355
F-0.6967871583183021
aF-0.1255511997832779
aF-0.7062043275396186
atp1356
s(I3
I11
I0
tp1357
((F-8.282145099707122
F36.92791665644836
F-127.42694263443627
tp1358
(lp1359
F0.5879123037699115
aF0.3926701356780943
aF-0.7072264754818659
atp1360
s(I8
I1
I0
tp1361
((F12.322041892150082
F-39.5119617745745
F-170.06011702509022
tp1362
(lp1363
F-0.4785421818881934
aF0.5200047690240911
aF-0.7075255616201359
atp1364
s(I5
I33
I0
tp1365
((F-57.15462776738241
F78.06429568999101
F-25.76436914773467
tp1366
(lp1367
F0.17294258393393572
aF0.6863949539234949
aF-0.7063659320002749
atp1368
s(I1
I6
I0
tp1369
((F6.234953242372285
F95.77642914862372
F-165.03017659371972
tp1370
(lp1371
F0.7068599133916944
aF0.03695943029596062
aF-0.7063873323836465
atp1372
s(I3
I56
I0
tp1373
((F-9.401319090477045
F36.806586502317714
F90.48301166305919
tp1374
(lp1375
F-0.5845023588882607
aF0.39784567967472423
aF-0.7071603832358085
atp1376
s(I11
I46
I0
tp1377
((F-77.3720983584144
F-59.13231840163235
F47.52961149971998
tp1378
(lp1379
F0.21137908197079022
aF0.6742807139576794
aF-0.707576428726896
atp1380
s(I12
I2205
I0
tp1381
((F-14.681424335180054
F-95.94350395443098
F134.677071876431
tp1382
(lp1383
F-0.6697840253667445
aF-0.22698333971951817
aF-0.7070133823721402
atp1384
s(I11
I31
I0
tp1385
((F-76.92176640788875
F-59.52994787388343
F-25.089485086087734
tp1386
(lp1387
F0.693056610709673
aF0.13707353640956052
aF-0.7077311494966134
atp1388
s(I12
I56
I0
tp1389
((F-13.616830136654244
F-95.47108712613453
F91.09312262186722
tp1390
(lp1391
F0.6139959507962759
aF0.35103970502917653
aF-0.7069512698190774
atp1392
s(I4
I22
I0
tp1393
((F45.59212711285545
F8.760631635455411
F-69.32334718913853
tp1394
(lp1395
F-0.6550619033976963
aF0.26465341633621065
aF-0.707709313163646
atp1396
s(I7
I68
I0
tp1397
((F-34.58989629102962
F-16.992518941331127
F149.28279608195953
tp1398
(lp1399
F0.5569572437519741
aF-0.43558053543297315
aF-0.7071550224555635
atp1400
s(I12
I13
I0
tp1401
((F-14.10808513496886
F-95.19838178882264
F-112.21147710563673
tp1402
(lp1403
F-0.1732059144720697
aF0.6848295691257609
aF-0.7078193077635837
atp1404
s(I2
I59
I0
tp1405
((F78.00045842219333
F56.10713485086808
F105.17600461932079
tp1406
(lp1407
F0.6631867557306226
aF-0.24503752137329604
aF-0.7072057268876738
atp1408
s(I5
I91
I0
tp1409
((F-57.35134093077704
F77.45908449068293
F47.996985188609415
tp1410
(lp1411
F0.0008039195246691611
aF0.0002623544581834401
aF0.9999996424417041
atp1412
s(I4
I69
I0
tp1413
((F46.23853241464167
F7.940640166780213
F148.6182325645791
tp1414
(lp1415
F0.28811708801112507
aF-0.645930026544659
aF-0.706939137694332
atp1416
s(I12
I3
I0
tp1417
((F-13.618833106858801
F-96.26142257651509
F-170.29451105140652
tp1418
(lp1419
F0.3499225904322561
aF-0.6149097663916429
aF-0.7067108035833007
atp1420
s(I8
I38
I0
tp1421
((F13.147018612931788
F-40.32028839454597
F4.230962708246807
tp1422
(lp1423
F0.6365182895482893
aF-0.30745451047891587
aF-0.7073303266909248
atp1424
s(I2
I74
I0
tp1425
((F77.84428612907868
F56.706920776515744
F177.72805136022953
tp1426
(lp1427
F0.4907784649639571
aF0.5090134188267665
aF-0.707136364347011
atp1428
s(I5
I12
I0
tp1429
((F-56.737992887592554
F77.94123233525852
F-127.45411977951562
tp1430
(lp1431
F0.5580299044321831
aF0.43582424676915965
aF-0.7061585173935829
atp1432
s(I10
I4
I0
tp1433
((F61.49218100299731
F-80.01915356453537
F-155.63239474101965
tp1434
(lp1435
F0.18476071384843681
aF-0.6818061007322478
aF-0.7078163035862511
atp1436
s(I7
I42
I0
tp1437
((F-35.54843723334852
F-16.58318524093238
F18.644471412723306
tp1438
(lp1439
F-0.707717072776355
aF-0.012937365810450383
aF-0.706377497848533
atp1440
s(I3
I31
I0
tp1441
((F-9.021900006529904
F35.98441420563131
F-25.712358281232355
tp1442
(lp1443
F-0.20719982940826664
aF-0.6755001296502494
aF-0.7076494934186566
atp1444
s(I8
I21
I0
tp1445
((F13.159496822801884
F-40.31014688025971
F-82.86929905662419
tp1446
(lp1447
F0.6049951780677931
aF-0.3672733660823734
aF-0.7064638059244381
atp1448
s(I11
I69
I0
tp1449
((F-77.0168665094825
F-59.755838075146585
F149.12715562802578
tp1450
(lp1451
F0.7059538570102847
aF-0.04405345622861269
aF-0.7068864440393634
atp1452
s(I5
I61
I0
tp1453
((F-57.91837934916657
F77.19194918282801
F119.49573755897518
tp1454
(lp1455
F-0.6451692540783927
aF-0.28872514715898984
aF-0.7073856253769581
atp1456
s(I1
I10
I0
tp1457
((F5.661829002103332
F95.14547541491902
F-135.96111913122968
tp1458
(lp1459
F0.026736069020384553
aF-0.7061914362913142
aF-0.7075159630157809
atp1460
s(I8
I68
I0
tp1461
((F13.142086578516682
F-40.29129423653103
F149.39006360061148
tp1462
(lp1463
F0.6783091320690247
aF-0.1994732184661387
aF-0.7071825481914317
atp1464
s(I11
I50
I0
tp1465
((F-76.98516151476815
F-59.590771535840304
F62.03794480583883
tp1466
(lp1467
F0.6964916068634127
aF0.12170403948251834
aF-0.7071686986444317
atp1468
s(I12
I34
I0
tp1469
((F-13.536951416786906
F-96.0106258213059
F-10.551404316186108
tp1470
(lp1471
F0.6356675304752889
aF-0.30848940376702466
aF-0.7076447402919867
atp1472
s(I2
I20
I0
tp1473
((F78.11564941038341
F56.26332804989397
F-83.7550385232671
tp1474
(lp1475
F0.6813839170912384
aF-0.18814321547998294
aF-0.7073316676059775
atp1476
s(I4
I34
I0
tp1477
((F45.51516382157388
F8.628561804263427
F-11.190290549771362
tp1478
(lp1479
F-0.6931729838453198
aF0.1370814841746743
aF-0.7076156309490658
atp1480
s(I7
I80
I0
tp1481
((F-34.832258826542784
F-16.457254662079322
F-110.94799579712299
tp1482
(lp1483
F0.0009760237592172013
aF-0.0013167983040198049
aF0.9999986567090218
atp1484
s(I2
I39
I0
tp1485
((F77.01088276113114
F56.65957895758993
F3.382568303669359
tp1486
(lp1487
F-0.6023986695934713
aF0.3713709657604145
aF-0.7065404791391593
atp1488
s(I5
I87
I0
tp1489
((F-57.30936779446711
F77.49439234648162
F-10.092985028975818
tp1490
(lp1491
F-0.0008529441645375688
aF0.000650210256941853
aF0.9999994248562716
atp1492
s(I1
I92
I0
tp1493
((F5.554112174484544
F95.60604015399167
F53.994155405652236
tp1494
(lp1495
F0.0002770247859689992
aF-0.00045198223298353245
aF0.9999998594846546
atp1496
s(I4
I81
I0
tp1497
((F46.15272970858314
F8.560193817109393
F-97.25283502216553
tp1498
(lp1499
F-0.0007754411147323573
aF0.0007316808842934855
aF0.9999994316669191
atp1500
s(I7
I1
I0
tp1501
((F-35.24428681963582
F-16.081105362285598
F-170.20071447594592
tp1502
(lp1503
F-0.5968500852522903
aF0.37731797227249175
aF-0.7080968320325328
atp1504
s(I3
I98
I0
tp1505
((F-8.942958979880132
F36.46639564965926
F149.7330455021588
tp1506
(lp1507
F0.0002158704211659483
aF0.0002035134349076219
aF0.9999999559911206
atp1508
s(I8
I58
I0
tp1509
((F13.12263965261991
F-39.88022204202662
F105.84699866790925
tp1510
(lp1511
F0.6450302073634369
aF0.2893381328712631
aF-0.7072619574494678
atp1512
s(I10
I30
I0
tp1513
((F60.83332549438819
F-79.11540123913801
F-39.4634081512213
tp1514
(lp1515
F-0.4947686556859476
aF0.5059921075917266
aF-0.7065238597567691
atp1516
s(I5
I24
I0
tp1517
((F-57.07260760917052
F76.98777601070469
F-69.35326154446557
tp1518
(lp1519
F0.223926247554217
aF-0.6715939604050937
aF-0.7062709027021352
atp1520
s(I10
I16
I0
tp1521
((F61.055055099724996
F-80.02695596131844
F-97.5603729518325
tp1522
(lp1523
F-0.28210947981656137
aF-0.6477014866976434
aF-0.7077407897862689
atp1524
s(I7
I54
I0
tp1525
((F-34.650616069234275
F-17.05947233213692
F76.69329193575868
tp1526
(lp1527
F0.44295228277279175
aF-0.5518588872230573
aF-0.7065727448602172
atp1528
s(I3
I19
I0
tp1529
((F-8.818261246960901
F37.152198786599456
F-83.85239431164655
tp1530
(lp1531
F-0.01826595168773417
aF0.7062344030795359
aF-0.7077424128281652
atp1532
s(I11
I73
I0
tp1533
((F-77.87868884588988
F-59.217984570136196
F178.15689687546592
tp1534
(lp1535
F-0.3412633525199292
aF0.619195621206651
aF-0.7072030167535828
atp1536
s(I10
I39
I0
tp1537
((F61.3153194144561
F-80.1170232312652
F4.097508450799978
tp1538
(lp1539
F0.13422663960198075
aF-0.6947643946556491
aF-0.7066014754725108
atp1540
s(I1
I62
I0
tp1541
((F5.696857662323964
F96.14191437716136
F110.96907692349669
tp1542
(lp1543
F0.19370566838618247
aF0.6799574424919366
aF-0.7072029344077179
atp1544
s(I8
I88
I0
tp1545
((F12.627033833456153
F-40.068727742443116
F5.37314529760215
tp1546
(lp1547
F0.0005586837576101598
aF0.0004301213323825432
aF0.9999997514340183
atp1548
s(I11
I6
I0
tp1549
((F-76.9623732609407
F-59.11336222595264
F-155.73606723341936
tp1550
(lp1551
F0.4770915313666002
aF0.5232069816428566
aF-0.7061431335490305
atp1552
s(I4
I15
I0
tp1553
((F46.30952427241209
F8.00731767413754
F-112.92027779257614
tp1554
(lp1555
F0.17480309607524133
aF-0.6858621953531763
aF-0.706425457205381
atp1556
s(I12
I49
I0
tp1557
((F-14.63205723619103
F-95.99379399453483
F62.04869364678461
tp1558
(lp1559
F-0.6453240418562627
aF-0.288127102157875
aF-0.7074882712839853
atp1560
s(I12
I32
I0
tp1561
((F-14.56509273971642
F-95.5050027416255
F-25.07472186515588
tp1562
(lp1563
F-0.6356662383700273
aF0.3103723513783386
aF-0.7068220687672256
atp1564
s(I4
I62
I0
tp1565
((F45.456223444167335
F8.312808727552692
F119.56609098095123
tp1566
(lp1567
F-0.6792583318635647
aF-0.19646953705172754
aF-0.7071123246023981
atp1568
s(I7
I92
I0
tp1569
((F-35.00267453047945
F-16.599888307810033
F63.31185516076448
tp1570
(lp1571
F0.0004403198223117644
aF0.0007595559651852895
aF0.9999996145965206
atp1572
s(I3
I73
I0
tp1573
((F-9.51654630478697
F36.356594267324
F177.66097813172837
tp1574
(lp1575
F-0.6951107326789342
aF-0.12924564502439898
aF-0.7071892480494752
atp1576
s(I2
I83
I0
tp1577
((F77.54738714945233
F56.406181330017716
F-68.09986497537511
tp1578
(lp1579
F-0.0008480002444663375
aF0.0005691937930765876
aF0.9999994784568697
atp1580
s(I5
I99
I0
tp1581
((F-57.40402507615818
F77.41712599900575
F164.2089655118059
tp1582
(lp1583
F-9.022585741642307e-05
aF-0.00024613721872266845
aF0.9999999656378815
atp1584
s(I1
I64
I0
tp1585
((F5.79421240449301
F95.06528458731236
F125.51505569081928
tp1586
(lp1587
F0.3160869909089036
aF-0.6323893348541038
aF-0.7072289186260265
atp1588
s(I7
I13
I0
tp1589
((F-34.27025176054667
F-16.586048413363642
F-112.09071545977076
tp1590
(lp1591
F0.6882149718732957
aF-0.15847073512309504
aF-0.707988120379844
atp1592
s(I12
I27
I0
tp1593
((F-14.08062566823537
F-95.1834303464916
F-54.11069297862423
tp1594
(lp1595
F-0.07314442100860598
aF0.703622885961965
aF-0.7067989304079848
atp1596
s(I8
I14
I0
tp1597
((F12.126411837512933
F-39.822447083807674
F-111.96806602608285
tp1598
(lp1599
F-0.6773222260716993
aF0.20198914925859876
aF-0.7074142956224913
atp1600
s(I2
I98
I0
tp1601
((F77.4475146152181
F56.295330306591495
F149.90807550753834
tp1602
(lp1603
F0.0002694655191130354
aF6.817036696639147e-05
aF0.9999999613705668
atp1604
s(I5
I20
I0
tp1605
((F-56.78728731843876
F77.90652424313748
F-83.88304870390903
tp1606
(lp1607
F0.5549822009008974
aF0.4379471691477331
aF-0.7072460913421034
atp1608
s(I1
I17
I0
tp1609
((F5.385914903416051
F96.22761290683138
F-106.90500488582893
tp1610
(lp1611
F-0.29072215162962506
aF0.6442955935652221
aF-0.7073639930504515
atp1612
s(I3
I39
I0
tp1613
((F-9.447887707685368
F36.455251000578755
F3.3385465659939655
tp1614
(lp1615
F-0.7031670165011298
aF-0.07981866857129076
aF-0.7065303440422119
atp1616
s(I11
I93
I0
tp1617
((F-77.56369725892728
F-59.69674396130722
F77.69398529931323
tp1618
(lp1619
F-0.000672408625433638
aF0.0002039024679989392
aF0.9999997531451815
atp1620
s(I10
I57
I0
tp1621
((F61.48140109999986
F-79.10197738199895
F91.2123380704279
tp1622
(lp1623
F0.3962775711320189
aF0.5860190061862116
aF-0.7067855481022745
atp1624
s(I1
I34
I0
tp1625
((F5.926913306480856
F95.1801841777974
F-19.745074265963467
tp1626
(lp1627
F0.4231250019868139
aF-0.5661564597081462
aF-0.7074122530917859
atp1628
s(I11
I10
I0
tp1629
((F-77.58471320293665
F-59.02291713568593
F-126.69553793949262
tp1630
(lp1631
F-0.243465435323777
aF0.66301892393875
aF-0.7079057057982411
atp1632
s(I4
I27
I0
tp1633
((F45.551096398283335
F8.66098091275262
F-54.78137864295741
tp1634
(lp1635
F-0.6911785579093095
aF0.15202860924836742
aF-0.706512210125497
atp1636
s(I10
I71
I0
tp1637
((F60.79309501065836
F-80.06083749588879
F163.7950693218006
tp1638
(lp1639
F-0.4188924758970291
aF-0.5696651126624009
aF-0.7071143847017899
atp1640
s(I12
I38
I0
tp1641
((F-14.287915865741525
F-95.22386213363052
F3.9692348498733736
tp1642
(lp1643
F-0.2692758367880585
aF0.6541045565412074
aF-0.7068505873479355
atp1644
s(I2
I12
I0
tp1645
((F77.31864727427273
F56.962356217314664
F-127.32817007776293
tp1646
(lp1647
F-0.3336573039798927
aF0.6243435011992681
aF-0.7063058799210927
atp1648
s(I5
I78
I0
tp1649
((F-57.17586263717112
F77.59915356984902
F-140.83687554575226
tp1650
(lp1651
F0.0014222131304180224
aF0.00040143362471961873
aF0.9999989080798322
atp1652
s(I4
I74
I0
tp1653
((F45.94787381197057
F7.889684987062083
F177.67209398253453
tp1654
(lp1655
F-0.061461811633031604
aF-0.7044286673089413
aF-0.707108689229693
atp1656
s(I3
I93
I0
tp1657
((F-8.916881711915266
F36.487357905914905
F77.1010553556498
tp1658
(lp1659
F-0.00024686161309476584
aF0.0005657696900558215
aF0.9999998094819827
atp1660
s(I2
I95
I0
tp1661
((F77.45851996480633
F56.30763949347511
F106.31808543813213
tp1662
(lp1663
F0.0002848151099362351
aF0.0003673572492366715
aF0.9999998919644965
atp1664
s(I10
I9
I0
tp1665
((F60.969974363082656
F-79.01589277504536
F-141.10922320246527
tp1666
(lp1667
F-0.4372346473883108
aF0.5566561439380607
aF-0.70637086614556
atp1668
s(I7
I25
I0
tp1669
((F-34.88406872606993
F-17.09114113443775
F-53.98468641348882
tp1670
(lp1671
F0.020995666494669878
aF-0.7060334999401087
aF-0.7078671336845391
atp1672
s(I3
I10
I0
tp1673
((F-9.281057537114975
F36.86139057755827
F-127.427415096211
tp1674
(lp1675
F-0.6341253403519387
aF0.3112842507147341
aF-0.7078044701614313
atp1676
s(I8
I2
I0
tp1677
((F13.277202338100324
F-39.8118292762133
F-170.06005415173922
tp1678
(lp1679
F0.6899706701057953
aF0.15315642323443063
aF-0.7074486443663566
atp1680
s(I5
I32
I0
tp1681
((F-57.8521409824034
F77.34615446399903
F-25.76507228494438
tp1682
(lp1683
F-0.6803728560461108
aF-0.19215613733704828
aF-0.7072261276560444
atp1684
s(I1
I5
I0
tp1685
((F5.343052549224012
F96.23114276876095
F-165.03099952902676
tp1686
(lp1687
F-0.3842629728893842
aF0.5932415830587374
aF-0.7073940852142994
atp1688
s(I10
I46
I0
tp1689
((F60.642859125733594
F-79.35108670376985
F47.651763701076106
tp1690
(lp1691
F-0.6557004760192622
aF0.26362866260876444
aF-0.707500398585914
atp1692
s(I3
I59
I0
tp1693
((F-8.640018276741102
F35.97655128147244
F105.00601648264774
tp1694
(lp1695
F0.3538176278887684
aF-0.612164678121946
aF-0.7071545043729971
atp1696
s(I11
I33
I0
tp1697
((F-77.8691986289241
F-59.2064931027885
F-25.088390737416375
tp1698
(lp1699
F-0.4660017771953846
aF0.5327777960085816
aF-0.7063923582053966
atp1700
s(I10
I28
I0
tp1701
((F61.79725822197179
F-79.38574332290364
F-39.46433250959308
tp1702
(lp1703
F0.6844759261168865
aF0.17526421715781218
aF-0.7076546903331382
atp1704
s(I10
I59
I0
tp1705
((F60.67693139956282
F-79.9143355461265
F105.73506175714965
tp1706
(lp1707
F-0.58087712548104
aF-0.40318480383323674
aF-0.7071235953147359
atp1708
s(I11
I30
I0
tp1709
((F-77.06749231048343
F-59.22253489829427
F-39.60635489812512
tp1710
(lp1711
F0.49948416991928724
aF0.5015676425315856
aF-0.7063607180225612
atp1712
s(I4
I23
I0
tp1713
((F46.5835796157462
F8.899461397792038
F-69.32286593715753
tp1714
(lp1715
F0.5578494945566794
aF0.434493323565803
aF-0.7071205648258292
atp1716
s(I7
I71
I0
tp1717
((F-34.92359625042627
F-17.203934790463336
F163.8188059046463
tp1718
(lp1719
F0.15319639728056514
aF-0.6902750248558505
aF-0.7071430222525782
atp1720
s(I12
I36
I0
tp1721
((F-14.098406861683543
F-95.18175951752846
F-10.550745636373449
tp1722
(lp1723
F-0.05119916921308895
aF0.7055192192401147
aF-0.7068389323988234
atp1724
s(I2
I56
I0
tp1725
((F77.12007738301509
F55.84736248101353
F90.6449946849516
tp1726
(lp1727
F-0.41977644654818747
aF-0.568885424301291
aF-0.7072178652585899
atp1728
s(I5
I90
I0
tp1729
((F-57.34136325526924
F77.46704116326327
F33.48599513606678
tp1730
(lp1731
F0.0008615950328064052
aF0.00027902703898283014
aF0.9999995898988714
atp1732
s(I4
I70
I0
tp1733
((F46.084684531593666
F7.895020163401114
F163.14099445357078
tp1734
(lp1735
F0.10344046063241207
aF-0.6993748428978522
aF-0.7072304435088741
atp1736
s(I3
I81
I0
tp1737
((F-8.79134316753516
F36.584198660450966
F-97.22586514651175
tp1738
(lp1739
F-0.0009983172343928605
aF-0.0006234757724182964
aF0.9999993073200905
atp1740
s(I8
I39
I0
tp1741
((F12.14865201572502
F-40.394556758051294
F4.23155242400253
tp1742
(lp1743
F-0.5848515910655695
aF-0.3983120597216127
aF-0.7066088872271551
atp1744
s(I2
I75
I0
tp1745
((F77.60298176770812
F55.7353117014959
F177.72815394042618
tp1746
(lp1747
F0.19557439877920263
aF-0.6796221618115583
aF-0.707010871003224
atp1748
s(I5
I11
I0
tp1749
((F-57.72947183320048
F77.80259362962533
F-127.45501962199478
tp1750
(lp1751
F-0.6549138427011589
aF0.2662180722221447
aF-0.7072593560079121
atp1752
s(I10
I5
I0
tp1753
((F60.78273764952246
F-79.31279541719232
F-155.63185077967864
tp1754
(lp1755
F-0.6831496773435358
aF0.18232994759426946
aF-0.70715083861627
atp1756
s(I7
I37
I0
tp1757
((F-34.69942347608321
F-17.07898515858915
F4.097374414838669
tp1758
(lp1759
F0.3163541742120639
aF-0.6316928405504271
aF-0.7077317229402225
atp1760
s(I3
I30
I0
tp1761
((F-9.037550865339654
F37.08929721593222
F-40.24236061318743
tp1762
(lp1763
F-0.24109263510845264
aF0.6654436026824385
aF-0.7064411885963894
atp1764
s(I8
I22
I0
tp1765
((F12.378724970973053
F-40.52684554525331
F-68.35311364764857
tp1766
(lp1767
F-0.3414029303859288
aF-0.6188385732937317
aF-0.7074481318992081
atp1768
s(I11
I68
I0
tp1769
((F-77.85093278828845
F-59.20213652961502
F149.1269530579557
tp1770
(lp1771
F-0.314416249741929
aF0.633327370066924
aF-0.7071342618077097
atp1772
s(I5
I60
I0
tp1773
((F-57.03591016663995
F76.97178353833806
F104.97927739680472
tp1774
(lp1775
F0.42689411178216996
aF-0.5641816482288201
aF-0.7067251835950974
atp1776
s(I1
I9
I0
tp1777
((F5.942994826473296
F95.23678083347659
F-150.4972012676808
tp1778
(lp1779
F0.3601872016876109
aF-0.6093084070950161
aF-0.7064052978168994
atp1780
s(I8
I69
I0
tp1781
((F12.169134517538623
F-40.52712520806017
F149.3902633710495
tp1782
(lp1783
F-0.5119694147930857
aF-0.48798131393658994
aF-0.7069381554033879
atp1784
s(I11
I53
I0
tp1785
((F-77.4597137681858
F-59.12826728070104
F76.55193902299106
tp1786
(lp1787
F0.12674614073452972
aF0.6955969442632414
aF-0.7071635644888273
atp1788
s(I10
I61
I0
tp1789
((F61.72085478121335
F-79.52387919803004
F120.25388385933184
tp1790
(lp1791
F0.7025014195913867
aF0.07848644074070646
aF-0.7073412430305065
atp1792
s(I2
I21
I0
tp1793
((F77.14694818720636
F56.010604227764816
F-83.75425753480295
tp1794
(lp1795
F-0.5036942902660525
aF-0.4973174860590797
aF-0.7063762312063273
atp1796
s(I12
I2307
I0
tp1797
((F-14.137270576315132
F-95.75788354786891
F150.34899552563047
tp1798
(lp1799
F8.427398593288671e-05
aF0.00018431590525550112
aF0.999999979462771
atp1800
s(I4
I35
I0
tp1801
((F46.46294246411708
F8.951001689491932
F-11.189884160166912
tp1802
(lp1803
F0.46630920509280066
aF0.5315441647455116
aF-0.7071184668573696
atp1804
s(I7
I83
I0
tp1805
((F-34.88502629526738
F-16.501413554309238
F-67.36504553796021
tp1806
(lp1807
F-0.00014144496558164514
aF-0.0014656905337237119
aF0.9999989158717029
atp1808
s(I12
I42
I0
tp1809
((F-13.639598183168346
F-96.13528475608337
F18.491210418300398
tp1810
(lp1811
F0.5363800259545054
aF-0.4611222540291819
aF-0.7068682583028402
atp1812
s(I2
I36
I0
tp1813
((F77.28298305906355
F56.896307641017756
F-11.139407293760087
tp1814
(lp1815
F-0.2794683742414294
aF0.6501847359251487
aF-0.7065106064092718
atp1816
s(I5
I86
I0
tp1817
((F-57.295914610067484
F77.50259681774332
F-24.622975085633698
tp1818
(lp1819
F0.00014024023378253356
aF-0.0011153184815080644
aF0.9999993681984812
atp1820
s(I1
I83
I0
tp1821
((F5.609390894342141
F95.68058054012454
F-76.70880482112761
tp1822
(lp1823
F0.0007957446436709414
aF0.00031840390016601387
aF0.9999996327046418
atp1824
s(I4
I82
I0
tp1825
((F46.14143823644736
F8.55192521485833
F-82.72484498613267
tp1826
(lp1827
F0.0009730867491189137
aF0.0003430786343171996
aF0.999999467699473
atp1828
s(I10
I88
I0
tp1829
((F61.20532280385851
F-79.54875535183737
F5.23909522492977
tp1830
(lp1831
F-0.0004923458393758892
aF0.000632511937855911
aF0.9999996787620599
atp1832
s(I8
I59
I0
tp1833
((F12.536176813315251
F-40.69158714946661
F105.84702195090404
tp1834
(lp1835
F-0.0724297417491451
aF-0.7032600842377799
aF-0.7072334737751197
atp1836
s(I5
I7
I0
tp1837
((F-56.84126898946033
F78.06884525339728
F-141.97954120696613
tp1838
(lp1839
F0.4103125043804149
aF0.5748828192646473
aF-0.7079218833059215
atp1840
s(I10
I17
I0
tp1841
((F60.94292594066974
F-79.03212993860734
F-97.55988692063147
tp1842
(lp1843
F-0.4192847198433642
aF0.5693369679044599
aF-0.7071461947032083
atp1844
s(I7
I49
I0
tp1845
((F-35.106769124554376
F-16.03211470888482
F62.1694692995743
tp1846
(lp1847
F-0.12704219755797838
aF0.6951202061331423
aF-0.7075790973912791
atp1848
s(I3
I18
I0
tp1849
((F-8.220645760966363
F36.68333857707739
F-98.36723438872286
tp1850
(lp1851
F0.6974842025391196
aF0.12085442918076081
aF-0.7063356101427712
atp1852
s(I11
I72
I0
tp1853
((F-77.23610157616895
F-60.173671180680685
F163.64611159936953
tp1854
(lp1855
F0.4419565370135931
aF-0.5521863839855056
aF-0.7069403204882039
atp1856
s(I1
I61
I0
tp1857
((F4.978128202936205
F95.44500694954695
F110.96903763751016
tp1858
(lp1859
F-0.6855650488667424
aF-0.1726168964789497
aF-0.7072509956319019
atp1860
s(I8
I89
I0
tp1861
((F12.621345538340393
F-40.07805070813538
F19.88913532416018
tp1862
(lp1863
F0.00034038864208193407
aF-0.0005728443594525188
aF0.9999997779924314
atp1864
s(I11
I57
I0
tp1865
((F-77.25097864629879
F-59.22120724955266
F91.06932300232711
tp1866
(lp1867
F0.39136186388744704
aF0.5894231992459206
aF-0.7066938401353496
atp1868
s(I10
I63
I0
tp1869
((F60.80372314072338
F-79.12247989851767
F120.25427928689896
tp1870
(lp1871
F-0.4194882036461675
aF0.5695455525895979
aF-0.7068574895458921
atp1872
s(I12
I53
I0
tp1873
((F-14.457921617326065
F-95.29518513366975
F76.57114781337805
tp1874
(lp1875
F-0.42331380080306485
aF0.5666141748902231
aF-0.7069326720863414
atp1876
s(I4
I8
I0
tp1877
((F46.07179630977225
F9.149302429421823
F-141.98282784321918
tp1878
(lp1879
F-0.1502436707759471
aF0.690944414589645
aF-0.7071228007490225
atp1880
s(I2
I1
I0
tp1881
((F77.08361451808014
F56.293179639836126
F-170.88528282791594
tp1882
(lp1883
F-0.6635874010727104
aF-0.24250166553125055
aF-0.7077038245990588
atp1884
s(I12
I2305
I0
tp1885
((F-14.712940100189371
F-95.81100332242659
F149.2070538069629
tp1886
(lp1887
F-0.7041976036247677
aF-0.06485786523451825
aF-0.7070354958319672
atp1888
s(I4
I63
I0
tp1889
((F46.14971718510242
F9.034832542623462
F119.56629532327634
tp1890
(lp1891
F0.16913981160566285
aF0.6868313899629686
aF-0.7068623387135132
atp1892
s(I7
I95
I0
tp1893
((F-35.028771980789315
F-16.62263337112654
F106.88484534131021
tp1894
(lp1895
F-0.0004171304867923717
aF-0.00048550735165160094
aF0.9999997951423633
atp1896
s(I3
I72
I0
tp1897
((F-9.119197505151533
F37.015395210109546
F163.14016531735479
tp1898
(lp1899
F-0.21175871439665966
aF0.6748077214109036
aF-0.7069602435790135
atp1900
s(I12
I40
I0
tp1901
((F-14.623254575401006
F-95.94908121716071
F18.490623806186704
tp1902
(lp1903
F-0.6669938586558776
aF-0.2333267781591248
aF-0.7075859008694462
atp1904
s(I2
I80
I0
tp1905
((F77.57943281698499
F56.4411842897548
F-111.65083508828138
tp1906
(lp1907
F-0.0004023327135656207
aF0.0010521535299885822
aF0.9999993655504672
atp1908
s(I5
I98
I0
tp1909
((F-57.40014020500621
F77.42010225516833
F149.6859654859827
tp1910
(lp1911
F0.0003446452948411293
aF-3.988105572825905e-05
aF0.9999999398145593
atp1912
s(I1
I71
I0
tp1913
((F5.9484016801616235
F95.9775224798882
F154.5781147495636
tp1914
(lp1915
F0.5096473517321333
aF0.49009081191094805
aF-0.707156682039342
atp1916
s(I10
I93
I0
tp1917
((F61.164181204983834
F-79.57708442350531
F77.83108538754823
tp1918
(lp1919
F0.00013605528552588302
aF-0.0005465597297397533
aF0.999999841380698
atp1920
s(I7
I12
I0
tp1921
((F-35.04806467722847
F-15.911149296659914
F-126.62705294719444
tp1922
(lp1923
F-0.28598214323683885
aF0.6479261706995749
aF-0.7059786760747448
atp1924
s(I12
I20
I0
tp1925
((F-13.465259028585933
F-95.99044749278892
F-83.1656401864193
tp1926
(lp1927
F0.647825588681859
aF-0.28424767534682627
aF-0.7067710136309554
atp1928
s(I8
I15
I0
tp1929
((F13.100102809816235
F-39.58968705292136
F-111.96725455952583
tp1930
(lp1931
F0.5138602813596951
aF0.48674035380712777
aF-0.7064215732950453
atp1932
s(I2
I99
I0
tp1933
((F77.44499690829798
F56.29280685078038
F164.4340755241517
tp1934
(lp1935
F0.0001417588188497579
aF0.00015471435431366938
aF0.9999999779839527
atp1936
s(I5
I19
I0
tp1937
((F-57.777794853927844
F77.76110555965761
F-83.88352685930886
tp1938
(lp1939
F-0.6567731540494859
aF0.260046585756961
aF-0.7078310514211975
atp1940
s(I1
I16
I0
tp1941
((F5.287079478875967
F95.23137822173157
F-106.90511005261624
tp1942
(lp1943
F-0.41163426047659063
aF-0.5744661737139188
aF-0.7074926507465501
atp1944
s(I7
I61
I0
tp1945
((F-34.46982760307128
F-16.506758371489923
F120.2436011194759
tp1946
(lp1947
F0.691097859853596
aF0.14819207671651705
aF-0.7074057226968307
atp1948
s(I3
I38
I0
tp1949
((F-8.530095035835984
F36.055365617336065
F3.3380064099001174
tp1950
(lp1951
F0.419631291436535
aF-0.5690257034990286
aF-0.7071911537941784
atp1952
s(I11
I92
I0
tp1953
((F-77.55450993536306
F-59.689822801694845
F63.17999525249161
tp1954
(lp1955
F-4.508506090229215e-05
aF0.0007650620805144258
aF0.999999706323632
atp1956
s(I12
I74
I0
tp1957
((F-14.58284256983643
F-95.3864915339891
F165.72203256511557
tp1958
(lp1959
F-0.5416318528244445
aF0.45464160247332563
aF-0.707061489056253
atp1960
s(I1
I33
I0
tp1961
((F5.236957966535556
F95.19227752128063
F-34.26638800166211
tp1962
(lp1963
F-0.42912895448160104
aF-0.562675199919078
aF-0.7065726854482514
atp1964
s(I10
I92
I0
tp1965
((F61.17169816254864
F-79.57224805206442
F63.31108535724525
tp1966
(lp1967
F0.00048301285158311485
aF-0.00038018828905334257
aF0.9999998110777072
atp1968
s(I12
I2105
I0
tp1969
((F-14.298563446851404
F-96.31089117866122
F120.14608910858033
tp1970
(lp1971
F-0.20651859910090797
aF-0.676396309684046
aF-0.7069922916632136
atp1972
s(I11
I13
I0
tp1973
((F-76.93593636863989
F-59.2359802138576
F-112.17053952536617
tp1974
(lp1975
F0.5695167572903154
aF0.4177942401305099
aF-0.7078832079370818
atp1976
s(I10
I49
I0
tp1977
((F61.746776646692524
F-79.62410074628906
F62.16878765735419
tp1978
(lp1979
F0.7038659608137423
aF-0.06369725592645001
aF-0.707471108099255
atp1980
s(I4
I4
I0
tp1981
((F45.8861137710137
F9.072174851161435
F-156.5193945012852
tp1982
(lp1983
F-0.3959125473092474
aF0.5850063485560197
aF-0.7078282468454163
atp1984
s(I2
I13
I0
tp1985
((F77.0422593263138
F56.65219633238712
F-112.79327395263499
tp1986
(lp1987
F-0.6574385320446389
aF0.25887137325008497
aF-0.7076441116087984
atp1988
s(I5
I77
I0
tp1989
((F-57.1607113049422
F77.61086914783573
F-155.3548656025887
tp1990
(lp1991
F-0.0003964546405582426
aF-0.0014629883891986292
aF0.9999988512436857
atp1992
s(I4
I75
I0
tp1993
((F45.52444319526694
F8.79685559282234
F177.67216386041218
tp1994
(lp1995
F-0.5794733348727082
aF0.4053749434632481
aF-0.7070232028608896
atp1996
s(I3
I92
I0
tp1997
((F-8.908673365564027
F36.4929394517153
F62.57505531909328
tp1998
(lp1999
F0.0005514847374600385
aF0.0003873154907655638
aF0.9999997729256217
atp2000
s(I12
I46
I0
tp2001
((F-13.539291712113481
F-95.91276459572873
F47.522665914654226
tp2002
(lp2003
F0.6809463373391865
aF-0.18900911505573367
aF-0.7075221834615472
atp2004
s(I2
I92
I0
tp2005
((F77.47502354424796
F56.324953853364605
F62.71108534822497
tp2006
(lp2007
F0.00062839454932133
aF3.1717139823480215e-05
aF0.9999998020571371
atp2008
s(I10
I64
I0
tp2009
((F61.31074407407323
F-79.03806539464631
F134.77691334337487
tp2010
(lp2011
F0.20628084836479874
aF0.6761416913732674
aF-0.7073051850402315
atp2012
s(I1
I75
I0
tp2013
((F5.718856853833131
F95.02863737407097
F169.10722291090087
tp2014
(lp2015
F0.23038933806762946
aF-0.6686084798181008
aF-0.7070243656480927
atp2016
s(I10
I95
I0
tp2017
((F61.1518840956287
F-79.58498364108436
F106.87707544320801
tp2018
(lp2019
F0.0002389459310693663
aF-0.0003857773084339384
aF0.9999998970403499
atp2020
s(I7
I24
I0
tp2021
((F-34.639801288609306
F-15.976263614573782
F-68.5062423820259
tp2022
(lp2023
F0.2999028645481366
aF0.6414404049948434
aF-0.706124973836695
atp2024
s(I3
I13
I0
tp2025
((F-9.341686635370934
F36.716386010371934
F-112.8994086987941
tp2026
(lp2027
F-0.6908737522993832
aF0.14742677438274646
aF-0.7077844336935288
atp2028
s(I8
I3
I0
tp2029
((F12.539929335058332
F-40.48908824071259
F-170.05915193681813
tp2030
(lp2031
F-0.2119856275351783
aF-0.6753806120884484
aF-0.7063449033818744
atp2032
s(I5
I47
I0
tp2033
((F-57.092175335546926
F76.94260615462508
F46.85491193236339
tp2034
(lp2035
F0.3176096186081959
aF-0.6316621187660579
aF-0.7071966472513362
atp2036
s(I1
I4
I0
tp2037
((F5.3952096769244235
F95.23137698607616
F-165.0311170155437
tp2038
(lp2039
F-0.32045560492176967
aF-0.6298400164819241
aF-0.7075378144751503
atp2040
s(I3
I58
I0
tp2041
((F-8.640982407338015
F36.97767616637111
F105.00582863114505
tp2042
(lp2043
F0.35263814123928383
aF0.6125796037581116
aF-0.70738431591523
atp2044
s(I11
I32
I0
tp2045
((F-77.67560284542105
F-60.18872130517411
F-25.089047280087925
tp2046
(lp2047
F-0.22916286486920895
aF-0.6688488866547754
aF-0.7071955515878222
atp2048
s(I12
I2207
I0
tp2049
((F-14.133903661570002
F-95.75781732332052
F135.81899551091692
tp2050
(lp2051
F5.1188731249302916e-05
aF0.0002605404549224867
aF0.999999964749192
atp2052
s(I11
I17
I0
tp2053
((F-77.87664208451315
F-59.23770927283476
F-97.6560022978233
tp2054
(lp2055
F-0.5608592980221677
aF0.43044804786442137
aF-0.7072137766699614
atp2056
s(I10
I51
I0
tp2057
((F60.92861336605347
F-79.04716013533744
F62.16940218691343
tp2058
(lp2059
F-0.29704892475466693
aF0.6421135024575022
aF-0.7067193122193955
atp2060
s(I4
I16
I0
tp2061
((F45.58864170387642
F8.681377088986665
F-98.39536175601597
tp2062
(lp2063
F-0.6906223280422157
aF0.14875659803683852
aF-0.707751562732331
atp2064
s(I7
I70
I0
tp2065
((F-34.623037270705936
F-16.248991708038375
F163.81871083504598
tp2066
(lp2067
F0.5208906753202398
aF0.47797191152789165
aF-0.7072593273720735
atp2068
s(I2
I57
I0
tp2069
((F77.23158200393482
F56.84225874241747
F90.64538011630702
tp2070
(lp2071
F-0.28336524657181833
aF0.6482389580794548
aF-0.7067463408206338
atp2072
s(I5
I89
I0
tp2073
((F-57.33256940145111
F77.47538256137841
F18.95699508207872
tp2074
(lp2075
F-0.0009545511488162389
aF0.00013042515366595554
aF0.9999995359105841
atp2076
s(I10
I96
I0
tp2077
((F61.146818647828695
F-79.58813530109728
F121.3960754679456
tp2078
(lp2079
F0.00035349812939891297
aF-0.0001774373218230499
aF0.9999999217775316
atp2080
s(I4
I71
I0
tp2081
((F45.46273870918776
F8.679517062212653
F163.14109317891734
tp2082
(lp2083
F-0.6574282392884657
aF0.2603536639693346
aF-0.7071096660658873
atp2084
s(I3
I80
I0
tp2085
((F-8.77739676201054
F36.596400926677234
F-111.75685519085118
tp2086
(lp2087
F-0.0007819117081206163
aF0.0009287904525838981
aF0.9999992629809163
atp2088
s(I8
I40
I0
tp2089
((F13.198353236190087
F-40.103803477863494
F18.746923911384783
tp2090
(lp2091
F0.7061276915848986
aF-0.03190036877390988
aF-0.7073655700195415
atp2092
s(I2
I72
I0
tp2093
((F76.97157268349838
F55.9608067998206
F163.2921939762075
tp2094
(lp2095
F-0.5790742997206683
aF-0.406051532786376
aF-0.7069618859067667
atp2096
s(I5
I10
I0
tp2097
((F-57.113666879741686
F77.01326734422264
F-127.45554351918508
tp2098
(lp2099
F0.09844231383681164
aF-0.6994185523054298
aF-0.7079002751358637
atp2100
s(I10
I2
I0
tp2101
((F60.92425822252153
F-79.0675505573945
F-170.1498416713912
tp2102
(lp2103
F-0.527811045918889
aF0.4704802603281114
aF-0.7071519104461226
atp2104
s(I10
I81
I0
tp2105
((F61.28515201742994
F-79.49784708950892
F-96.41785502626863
tp2106
(lp2107
F-0.0008931322736588033
aF-0.0005892257254247723
aF0.9999994275637293
atp2108
s(I7
I36
I0
tp2109
((F-34.57558514582979
F-16.99589514655372
F-10.417435782059783
tp2110
(lp2111
F0.4521197500898375
aF-0.5447426013633886
aF-0.7062883475171816
atp2112
s(I3
I1
I0
tp2113
((F-8.140022953437438
F36.62507563430108
F-171.03043138298062
tp2114
(lp2115
F0.7060874712943002
aF-0.019319714691776048
aF-0.7078610255590071
atp2116
s(I8
I23
I0
tp2117
((F12.359975848175964
F-39.5258957624128
F-68.35306240827049
tp2118
(lp2119
F-0.3643400097487991
aF0.6056914943080964
aF-0.7073854472768507
atp2120
s(I11
I71
I0
tp2121
((F-77.38696417851133
F-59.1839780707769
F163.64595855445486
tp2122
(lp2123
F0.2573960367642161
aF0.6585726286559548
aF-0.7071275507595927
atp2124
s(I5
I59
I0
tp2125
((F-57.15967321485641
F77.96522934795757
F104.97891511800935
tp2126
(lp2127
F0.27548634248439224
aF0.6511682976590846
aF-0.707168383928709
atp2128
s(I1
I8
I0
tp2129
((F5.932816744489173
F96.237854138888
F-150.49800366353975
tp2130
(lp2131
F0.34773566052675714
aF0.6153727740840077
aF-0.7073869233412311
atp2132
s(I8
I70
I0
tp2133
((F12.941957351284145
F-39.67557738547066
F163.90406825725768
tp2134
(lp2135
F0.4355115063520122
aF0.5569835001429685
aF-0.7071768579383018
atp2136
s(I11
I52
I0
tp2137
((F-78.10705396157482
F-59.89194430396992
F76.55165946142233
tp2138
(lp2139
F-0.6651892234175851
aF-0.23866119032091276
aF-0.7075055712033052
atp2140
s(I12
I78
I0
tp2141
((F-13.937287458807987
F-95.75879885554605
F-140.12086502456032
tp2142
(lp2143
F-0.0010626085057721623
aF-0.00011099177078359288
aF0.9999994292718323
atp2144
s(I2
I18
I0
tp2145
((F77.53965801131017
F55.85083375742852
F-98.2652277688967
tp2146
(lp2147
F-0.035744417820538915
aF-0.7069576692408976
aF-0.7063520301493784
atp2148
s(I10
I53
I0
tp2149
((F60.61126783099462
F-79.74540578910819
F76.6890684355094
tp2150
(lp2151
F-0.6763227269724628
aF-0.20629610995135708
aF-0.7071276292151716
atp2152
s(I4
I44
I0
tp2153
((F46.02353983471221
F9.076005012663245
F32.395097353552956
tp2154
(lp2155
F-0.03575431232415775
aF0.7061923568226186
aF-0.7071166695217571
atp2156
s(I7
I82
I0
tp2157
((F-34.86710501850757
F-16.48482442896193
F-81.89803562362204
tp2158
(lp2159
F0.0011798317909927504
aF0.0009734348178970664
aF0.9999988302101159
atp2160
s(I2
I37
I0
tp2161
((F78.0115859463167
F56.63051828642983
F3.381785648384266
tp2162
(lp2163
F0.6218297182964234
aF0.3358190667237885
aF-0.7074979546741845
atp2164
s(I5
I85
I0
tp2165
((F-57.282984368840516
F77.5153155930816
F-39.154965142797664
tp2166
(lp2167
F3.0481461313792472e-05
aF0.0011734568570992837
aF0.9999993110347052
atp2168
s(I1
I82
I0
tp2169
((F5.61607415288745
F95.68955776131497
F-91.23780484741201
tp2170
(lp2171
F-7.099681008796026e-05
aF-0.0008843749099028565
aF0.9999996064201584
atp2172
s(I10
I98
I0
tp2173
((F61.13808691312806
F-79.59310837307112
F150.43207550940542
tp2174
(lp2175
F-0.00023823656948818964
aF0.00012949070357410851
aF0.9999999632377466
atp2176
s(I4
I83
I0
tp2177
((F46.12724807751874
F8.544749637875157
F-68.18085495008427
tp2178
(lp2179
F-0.0005970721794613587
aF0.0007975016504909637
aF0.9999995037478419
atp2180
s(I7
I3
I0
tp2181
((F-34.779988508516
F-16.968052818916476
F-170.1989013385214
tp2182
(lp2183
F-0.02884232697201001
aF-0.7077452822949744
aF-0.7058786974856563
atp2184
s(I3
I100
I0
tp2185
((F-8.948426065308013
F36.46227983524477
F178.80304553526753
tp2186
(lp2187
F-0.000131215004192602
aF6.769901968836371e-05
aF0.9999999890997326
atp2188
s(I8
I60
I0
tp2189
((F12.126745498571836
F-39.77801291226251
F105.8473560536786
tp2190
(lp2191
F-0.5733149650791862
aF0.4143775251816772
aF-0.7068247430873936
atp2192
s(I5
I6
I0
tp2193
((F-56.81649739315071
F78.0772027674916
F-156.4960482076558
tp2194
(lp2195
F0.4208267851823454
aF0.5694882577023824
aF-0.7061075988914133
atp2196
s(I1
I99
I0
tp2197
((F5.531773032003912
F95.57700852950529
F155.72015553039546
tp2198
(lp2199
F-6.21176952755755e-05
aF0.0001663932798736332
aF0.999999984227334
atp2200
s(I12
I88
I0
tp2201
((F-14.068052439946769
F-95.75885995810086
F5.111025286779295
tp2202
(lp2203
F-0.00043758964401105277
aF-0.0005720943251745471
aF0.9999997406116596
atp2204
s(I10
I83
I0
tp2205
((F61.26027105236972
F-79.51446331176885
F-67.38586495361733
tp2206
(lp2207
F-0.0005640973279750681
aF-0.0008254479931717149
aF0.9999995002147827
atp2208
s(I7
I48
I0
tp2209
((F-35.27784115366103
F-16.088948105305917
F47.66038418622202
tp2210
(lp2211
F-0.3488434831397954
aF0.6157966096880216
aF-0.7064720516535906
atp2212
s(I3
I21
I0
tp2213
((F-9.296854665079081
F36.27288140107112
F-83.85126486872878
tp2214
(lp2215
F-0.6037618883353548
aF-0.36949446564464306
aF-0.7063606883538369
atp2216
s(I11
I75
I0
tp2217
((F-77.89869194017956
F-60.21891006576561
F178.15706545260173
tp2218
(lp2219
F-0.365734500645713
aF-0.6053047341946086
aF-0.7069967848576294
atp2220
s(I5
I55
I0
tp2221
((F-57.9215057507372
F77.24285754554512
F90.45268222914365
tp2222
(lp2223
F-0.664989602012755
aF-0.2393353107961413
aF-0.7074655032021223
atp2224
s(I1
I60
I0
tp2225
((F5.39645078659305
F95.03082538731496
F96.43238085878784
tp2226
(lp2227
F-0.1778754310558205
aF-0.6846532898609193
aF-0.7068310998458727
atp2228
s(I8
I90
I0
tp2229
((F12.615221658561495
F-40.08525043234704
F34.40513535014816
tp2230
(lp2231
F-0.0006234911351530409
aF5.7431428376032956e-05
aF0.9999998039801985
atp2232
s(I11
I56
I0
tp2233
((F-78.14767984153605
F-59.666380050134194
F91.0689434204628
tp2234
(lp2235
F-0.7056338036737385
aF0.044812981095339266
aF-0.7071582084924707
atp2236
s(I12
I76
I0
tp2237
((F-13.90549958527663
F-95.75878322172821
F-169.1528350863573
tp2238
(lp2239
F-0.0011247349733380038
aF4.642085727318655e-06
aF0.9999993674746454
atp2240
s(I4
I9
I0
tp2241
((F46.74601060717396
F8.409243838101247
F-141.98222568724987
tp2242
(lp2243
F0.6745686158430079
aF-0.2144196829847938
aF-0.7063861423246843
atp2244
s(I2
I30
I0
tp2245
((F77.34727372654743
F56.93337700778284
F-40.18934106110919
tp2246
(lp2247
F-0.22250896205476678
aF0.6718723816949456
aF-0.7064540073641536
atp2248
s(I12
I55
I0
tp2249
((F-14.617948020541007
F-95.46723507625711
F91.092742786303
tp2250
(lp2251
F-0.6107397662677816
aF0.355752180097757
aF-0.7074159485443261
atp2252
s(I10
I55
I0
tp2253
((F61.410161835292456
F-80.10056473799978
F91.21182856163341
tp2254
(lp2255
F0.3091257248312827
aF-0.6356209437018523
aF-0.707408864925441
atp2256
s(I4
I56
I0
tp2257
((F46.41678692781534
F8.903151597200122
F90.51208967003686
tp2258
(lp2259
F0.4823628273862208
aF0.517026144230698
aF-0.7071139009649778
atp2260
s(I7
I94
I0
tp2261
((F-35.02151334682276
F-16.61554488926231
F92.34384528547935
tp2262
(lp2263
F-0.000698496521621664
aF0.00018297451283812234
aF0.9999997393114345
atp2264
s(I3
I75
I0
tp2265
((F-8.572681746980379
F36.0228703169214
F177.6611245737065
tp2266
(lp2267
F0.4595830897193768
aF-0.5375128913466806
aF-0.7070100955998598
atp2268
s(I2
I81
I0
tp2269
((F77.56877372905365
F56.42931950961338
F-97.12384505065575
tp2270
(lp2271
F-0.00018142064387873357
aF0.0010773733889797156
aF0.9999994031763872
atp2272
s(I5
I97
I0
tp2273
((F-57.3957280532386
F77.4238982815209
F135.1649654546336
tp2274
(lp2275
F0.00035679706467540013
aF0.0002361452946693506
aF0.999999908465623
atp2276
s(I1
I70
I0
tp2277
((F4.976545296405675
F95.73721607352445
F154.5780943654554
tp2278
(lp2279
F-0.6792907785316231
aF0.19610761207963767
aF-0.7071816193074617
atp2280
s(I10
I100
I0
tp2281
((F61.13323971322461
F-79.59641760870045
F179.44707553703802
tp2282
(lp2283
F-0.00012543647423457013
aF5.025507613221483e-05
aF0.9999999908700591
atp2284
s(I7
I15
I0
tp2285
((F-35.00209264206478
F-15.902924471692586
F-112.08910162706661
tp2286
(lp2287
F-0.20709584139753293
aF0.6772413263756107
aF-0.7060138088768882
atp2288
s(I12
I21
I0
tp2289
((F-14.46023032766243
F-96.10128121511889
F-83.16564310155673
tp2290
(lp2291
F-0.5693905923959801
aF-0.41983811936691
aF-0.7067745799173956
atp2292
s(I8
I48
I0
tp2293
((F12.578331303900995
F-40.66981591622107
F47.77947274681355
tp2294
(lp2295
F-0.03998385282606409
aF-0.7063884499118349
aF-0.7066941695983764
atp2296
s(I2
I96
I0
tp2297
((F77.45392955348689
F56.3022093718796
F120.83207546401854
tp2298
(lp2299
F-4.559621123340757e-05
aF-0.00040276434477538094
aF0.9999999178509307
atp2300
s(I5
I18
I0
tp2301
((F-56.94814123668766
F77.05285616035599
F-98.40119413835782
tp2302
(lp2303
F0.3398963749088012
aF-0.6210747704627038
aF-0.7062128459739001
atp2304
s(I1
I23
I0
tp2305
((F6.0187926261260145
F95.27311831360112
F-77.85100128232398
tp2306
(lp2307
F0.5013980800720382
aF-0.4982566113460431
aF-0.7073473789801106
atp2308
s(I10
I85
I0
tp2309
((F61.23825102723822
F-79.52917404759683
F-38.321884881275764
tp2310
(lp2311
F0.0008758775392533276
aF-0.00029618382130159086
aF0.9999995725567488
atp2312
s(I7
I60
I0
tp2313
((F-34.52651558207526
F-16.33519798081761
F105.7431941658856
tp2314
(lp2315
F0.6141566615159563
aF0.35130430677444696
aF-0.7066801816644502
atp2316
s(I3
I41
I0
tp2317
((F-8.419681138009764
F36.85788134186123
F17.860010230168882
tp2318
(lp2319
F0.5673475856257001
aF0.4219051645815867
aF-0.7071865024051811
atp2320
s(I11
I95
I0
tp2321
((F-77.57731742863416
F-59.70815562090684
F106.72098538549972
tp2322
(lp2323
F0.0005274216675902717
aF-0.00020775713175468874
aF0.9999998393316665
atp2324
s(I1
I32
I0
tp2325
((F6.160778341576588
F95.57803332659569
F-34.26699900356789
tp2326
(lp2327
F0.7010434534602619
aF-0.09075384036840978
aF-0.7073201657092033
atp2328
s(I11
I12
I0
tp2329
((F-77.75656979628911
F-60.00918046245533
F-126.6941373716495
tp2330
(lp2331
F-0.4537093151698001
aF-0.5435442013113254
aF-0.7061922957304082
atp2332
s(I12
I82
I0
tp2333
((F-13.994862227100384
F-95.75757022769858
F-82.02391489917818
tp2334
(lp2335
F-0.00010737679872722853
aF0.000937636076800902
aF0.9999995546543061
atp2336
s(I4
I5
I0
tp2337
((F46.78632792327335
F8.634149568858902
F-156.51881818892298
tp2338
(lp2339
F0.7053807599271101
aF0.049140176501900126
aF-0.707123204666637
atp2340
s(I2
I10
I0
tp2341
((F78.16863224018743
F56.43341734281421
F-127.32927676781037
tp2342
(lp2343
F0.7061872173075786
aF-0.022743462455616162
aF-0.7076597692584401
atp2344
s(I5
I76
I0
tp2345
((F-57.141915379689635
F77.62744021607614
F-169.87784565907032
tp2346
(lp2347
F0.0009994706125560004
aF0.0011880798515338617
aF0.9999987947616542
atp2348
s(I4
I52
I0
tp2349
((F45.73845575757332
F7.98498082142396
F75.9858177553856
tp2350
(lp2351
F-0.35555294347683636
aF-0.6108203508601564
aF-0.7074465374570952
atp2352
s(I3
I95
I0
tp2353
((F-8.928974800035576
F36.47705021968022
F106.14805542265731
tp2354
(lp2355
F0.00046005026418034626
aF0.00018808345629563097
aF0.9999998764891763
atp2356
s(I2
I93
I0
tp2357
((F77.46879350355994
F56.31893294650308
F77.24908537990405
tp2358
(lp2359
F0.0003183538600381797
aF0.00048081027853992146
aF0.9999998337361341
atp2360
s(I1
I74
I0
tp2361
((F5.909671771134526
F96.01140980878836
F169.10712859759633
tp2362
(lp2363
F0.46382622729808026
aF0.5336839993374038
aF-0.7071397455394962
atp2364
s(I7
I27
I0
tp2365
((F-34.40868955973656
F-16.210082276977573
F-53.98329432606033
tp2366
(lp2367
F0.6025593899358608
aF0.37182583005042746
aF-0.7061640982855429
atp2368
s(I3
I12
I0
tp2369
((F-8.723988548827037
F36.029570521784535
F-127.42617529802283
tp2370
(lp2371
F0.04737510810398141
aF-0.7063378983591316
aF-0.7062877405659405
atp2372
s(I8
I4
I0
tp2373
((F13.10173879872491
F-39.53058705049352
F-155.5271188041661
tp2374
(lp2375
F0.48531223622538494
aF0.5137059699583071
aF-0.7075155191224508
atp2376
s(I5
I46
I0
tp2377
((F-57.03527712840605
F77.94211328275378
F46.85460396552253
tp2378
(lp2379
F0.38721707208052164
aF0.5911030510336858
aF-0.7075734040705995
atp2380
s(I1
I27
I0
tp2381
((F5.303355350311904
F96.16587557757748
F-63.33334017871539
tp2382
(lp2383
F-0.3647711035412477
aF0.6064342566337564
aF-0.706526386203915
atp2384
s(I10
I87
I0
tp2385
((F61.21587895279663
F-79.54203495048796
F-9.282894810043217
tp2386
(lp2387
F4.380309844809617e-05
aF0.0008429132872360112
aF0.9999996437891759
atp2388
s(I10
I77
I0
tp2389
((F61.34094724434908
F-79.46247746832114
F-154.4898151708585
tp2390
(lp2391
F-0.00036790534944390336
aF-0.0011396045453437005
aF0.99999928297331
atp2392
s(I3
I61
I0
tp2393
((F-8.585335249978016
F36.93305958818519
F119.53685783451783
tp2394
(lp2395
F0.42727013640633793
aF0.5631147139845226
aF-0.7073486053067742
atp2396
s(I11
I35
I0
tp2397
((F-78.07281857138878
F-59.565262311369224
F-10.570043941428594
tp2398
(lp2399
F-0.699099115443023
aF0.10554910976279494
aF-0.7071914961416492
atp2400
s(I11
I16
I0
tp2401
((F-77.49239674368073
F-60.16215896808035
F-97.65653051081699
tp2402
(lp2403
F-0.09078579258609352
aF-0.7004942503603665
aF-0.7078599756142333
atp2404
s(I12
I80
I0
tp2405
((F-13.966645070582672
F-95.75762123067898
F-111.06889496204349
tp2406
(lp2407
F-0.0002502202812569915
aF0.0009766330962103424
aF0.999999491788674
atp2408
s(I4
I17
I0
tp2409
((F46.541773740782446
F8.987630341998283
F-98.3948467376049
tp2410
(lp2411
F0.4754090329648331
aF0.5234170685646048
aF-0.7071215056202704
atp2412
s(I7
I65
I0
tp2413
((F-35.15584148594371
F-16.06621202319502
F134.75378660379693
tp2414
(lp2415
F-0.14071497557120247
aF0.6929030951887699
aF-0.7071665972936069
atp2416
s(I2
I54
I0
tp2417
((F77.0528218351701
F55.91669518268918
F76.10741101632266
tp2418
(lp2419
F-0.5086668258855096
aF-0.4917531130599785
aF-0.7067085226876642
atp2420
s(I5
I88
I0
tp2421
((F-57.32132712672228
F77.48388945153374
F4.429005026982395
tp2422
(lp2423
F-0.0009522764203032879
aF-0.0003626846907088807
aF0.9999994808145825
atp2424
s(I4
I64
I0
tp2425
((F46.46120516802148
F8.11360091521965
F134.09193034485043
tp2426
(lp2427
F0.5557499854474331
aF-0.4368708498913477
aF-0.7073088534652945
atp2428
s(I3
I83
I0
tp2429
((F-8.815397675400163
F36.56437026758704
F-68.16388505790746
tp2430
(lp2431
F0.0010871749022610144
aF-0.00016186863790125728
aF0.9999993959244555
atp2432
s(I8
I41
I0
tp2433
((F12.309389407288108
F-40.564232961494326
F18.746962750151397
tp2434
(lp2435
F-0.3814023285635662
aF-0.5951751267901841
aF-0.707318055910195
atp2436
s(I2
I73
I0
tp2437
((F76.88219580415353
F56.430091938088935
F177.72802134195695
tp2438
(lp2439
F-0.6862121801370347
aF0.1703498394502027
aF-0.7071730877450499
atp2440
s(I5
I9
I0
tp2441
((F-57.752757447541626
F77.6547937448372
F-141.9780786603178
tp2442
(lp2443
F-0.7047734293271969
aF0.06834539804798068
aF-0.7061326503427282
atp2444
s(I10
I3
I0
tp2445
((F61.9047843366352
F-79.26959038401674
F-170.14917234530458
tp2446
(lp2447
F0.6717333561936739
aF0.22331117473237577
aF-0.7063330782403081
atp2448
s(I7
I39
I0
tp2449
((F-34.63932942113843
F-16.079665692218896
F4.098518396464442
tp2450
(lp2451
F0.38987132604686126
aF0.5908427498337515
aF-0.7063322122736247
atp2452
s(I8
I24
I0
tp2453
((F13.236198017470088
F-40.010133482359834
F-68.35232714096628
tp2454
(lp2455
F0.707602270067571
aF0.013290498666460947
aF-0.706485944687095
atp2456
s(I11
I70
I0
tp2457
((F-78.16863224018743
F-59.80947549758184
F163.64585649869355
tp2458
(lp2459
F-0.6988717608969461
aF-0.10664099090939548
aF-0.7072524025259045
atp2460
s(I5
I58
I0
tp2461
((F-57.958140949987865
F77.3613243624959
F104.97870419513902
tp2462
(lp2463
F-0.7013336403359335
aF-0.08762981724115985
aF-0.70742642024696
atp2464
s(I1
I15
I0
tp2465
((F5.887829286601118
F95.19336083322287
F-121.43225207078422
tp2466
(lp2467
F0.3132403321704857
aF-0.6346800525779389
aF-0.7064430091390164
atp2468
s(I3
I49
I0
tp2469
((F-8.73934555048072
F37.044944705888156
F61.4327478778132
tp2470
(lp2471
F0.20753076632997894
aF0.6755728773001867
aF-0.7074830517283355
atp2472
s(I8
I71
I0
tp2473
((F12.802093399641308
F-40.66688464102799
F163.90407876963127
tp2474
(lp2475
F0.26440640488195266
aF-0.6557502068535536
aF-0.7071639974354764
atp2476
s(I11
I55
I0
tp2477
((F-77.3137981617192
F-60.22035954433704
F91.06869030192001
tp2478
(lp2479
F0.3145104705574959
aF-0.6329078787471674
aF-0.7074678656514821
atp2480
s(I2
I19
I0
tp2481
((F77.41243307060358
F56.97588592630473
F-83.75526706521396
tp2482
(lp2483
F-0.17890854398067013
aF0.6835773838244884
aF-0.7076112585412875
atp2484
s(I12
I86
I0
tp2485
((F-14.045456345911589
F-95.75915609708136
F-23.93295477413176
tp2486
(lp2487
F5.8504390826599546e-05
aF-0.000798233305882054
aF0.9999996797003615
atp2488
s(I4
I45
I0
tp2489
((F46.567898000315836
F8.235810956183286
F32.39546477027079
tp2490
(lp2491
F0.6301961207100523
aF-0.3216742778649602
aF-0.706667183617619
atp2492
s(I7
I77
I0
tp2493
((F-34.777292171866975
F-16.405945555026847
F-154.53893606102474
tp2494
(lp2495
F-0.0010373215654664678
aF0.001462308748702035
aF0.9999983928072551
atp2496
s(I2
I34
I0
tp2497
((F78.08512564482226
F56.29729295566858
F-11.140231216383654
tp2498
(lp2499
F0.7018473037315724
aF-0.08263074165406513
aF-0.7075185670909429
atp2500
s(I5
I84
I0
tp2501
((F-57.26867857293473
F77.52598959734905
F-53.682955200288234
tp2502
(lp2503
F0.0007462773677132808
aF0.0009674611242853498
aF0.9999992535442531
atp2504
s(I1
I81
I0
tp2505
((F5.623038931655174
F95.70094746905397
F-105.76279487366764
tp2506
(lp2507
F-0.0009162180422561122
aF-1.4667170566868667e-05
aF0.9999995801645984
atp2508
s(I4
I92
I0
tp2509
((F46.03718871579258
F8.489028093677916
F62.598105358360044
tp2510
(lp2511
F0.00057356609443553
aF0.0002159574539146741
aF0.9999998121921391
atp2512
s(I7
I2
I0
tp2513
((F-34.24401717503588
F-16.12248478469337
F-170.20009682471846
tp2514
(lp2515
F0.6268479228994276
aF0.32669570551419264
aF-0.7073412172037321
atp2516
s(I12
I10
I0
tp2517
((F-14.45422383944424
F-96.04361605433178
F-126.73848479284334
tp2518
(lp2519
F-0.6145047539579634
aF-0.3483462739418686
aF-0.7078409290185751
atp2520
s(I8
I61
I0
tp2521
((F12.062448718486849
F-39.89018496480776
F120.3610149340625
tp2522
(lp2523
F-0.6481167632361154
aF0.28240629990488103
aF-0.7072420681678766
atp2524
s(I5
I5
I0
tp2525
((F-57.73454956999831
F77.67791427322754
F-156.49699632922193
tp2526
(lp2527
F-0.7022889929002687
aF0.08101143773043326
aF-0.7072675006021233
atp2528
s(I1
I98
I0
tp2529
((F5.5334178377434
F95.57914133433997
F141.19015551854
tp2530
(lp2531
F-0.00020731195462462808
aF-0.0001108018839302279
aF0.9999999723723476
atp2532
s(I7
I51
I0
tp2533
((F-35.443839127495266
F-16.974789130873887
F62.1703337324916
tp2534
(lp2535
F-0.5394028979284775
aF-0.45811764203265
aF-0.7065215777064457
atp2536
s(I3
I20
I0
tp2537
((F-8.296046359124375
F36.29806564377486
F-83.85196390490773
tp2538
(lp2539
F0.6205951009524721
aF-0.33868486565316097
aF-0.707215866939714
atp2540
s(I12
I58
I0
tp2541
((F-14.6720631306016
F-95.57314294752086
F105.61877437863086
tp2542
(lp2543
F-0.6696595443759998
aF0.22621545895552006
aF-0.7073773114510189
atp2544
s(I11
I74
I0
tp2545
((F-77.02186347445604
F-59.735770508838414
F178.1569643165558
tp2546
(lp2547
F0.7069495029023741
aF-0.014247196197007556
aF-0.7071205114735466
atp2548
s(I5
I54
I0
tp2549
((F-57.14720106221557
F76.91113612173513
F75.92636211200261
tp2550
(lp2551
F0.2727146600668463
aF-0.6529130752441688
aF-0.7066337314053348
atp2552
s(I1
I51
I0
tp2553
((F5.310238400037633
F96.13073538475555
F52.8524599572288
tp2554
(lp2555
F-0.29815626280521673
aF0.6415835666046654
aF-0.7067342994456003
atp2556
s(I8
I91
I0
tp2557
((F12.611014169919144
F-40.09207352322528
F48.92113537544037
tp2558
(lp2559
F-9.797785363256272e-07
aF0.000584340550193265
aF0.9999998292725661
atp2560
s(I10
I29
I0
tp2561
((F61.08116860890186
F-80.08536285497757
F-39.46391251859177
tp2562
(lp2563
F-0.19156528727368416
aF-0.6806280239841606
aF-0.7071408867256707
atp2564
s(I4
I10
I0
tp2565
((F46.17502932746538
F7.998149186867522
F-127.45738412151377
tp2566
(lp2567
F-0.006797416814575832
aF-0.706389075920538
aF-0.7077911192892838
atp2568
s(I2
I31
I0
tp2569
((F77.41570538947781
F56.94306938642876
F-25.66923748257068
tp2570
(lp2571
F-0.127729470218503
aF0.6950356311025404
aF-0.7075384469663779
atp2572
s(I12
I84
I0
tp2573
((F-14.020385398285725
F-95.75878266416885
F-52.968944836335595
tp2574
(lp2575
F0.0007994520161077807
aF-0.00035480039372349896
aF0.9999996174965041
atp2576
s(I4
I57
I0
tp2577
((F46.19184819005022
F7.927623793917974
F90.51235287378813
tp2578
(lp2579
F0.2071799436069668
aF-0.6764034836879743
aF-0.7067919058830445
atp2580
s(I7
I89
I0
tp2581
((F-34.96936081653712
F-16.572392943139675
F19.785874947763205
tp2582
(lp2583
F0.0010240337646880726
aF0.0003849206363266576
aF0.9999994015952972
atp2584
s(I3
I74
I0
tp2585
((F-8.755600601547485
F37.00714298464527
F177.6610339377121
tp2586
(lp2587
F0.23580599201797195
aF0.6666149250622325
aF-0.7071209767873489
atp2588
s(I2
I46
I0
tp2589
((F77.96748666648818
F56.64364623637948
F47.02483034068155
tp2590
(lp2591
F0.5950280855497732
aF0.3814220935354139
aF-0.7074311019244446
atp2592
s(I5
I96
I0
tp2593
((F-57.3912838176866
F77.42802929111804
F120.6379654185389
tp2594
(lp2595
F-0.0004889673850583195
aF0.00012715489367438228
aF0.9999998723712565
atp2596
s(I1
I69
I0
tp2597
((F6.071286852882622
F95.79148363184186
F140.0482905215963
tp2598
(lp2599
F0.6578687721151346
aF0.25969634912333833
aF-0.7069416418119209
atp2600
s(I7
I14
I0
tp2601
((F-35.22777593441515
F-16.878279750192632
F-112.09016570241693
tp2602
(lp2603
F-0.48318958953196667
aF-0.5159772402217752
aF-0.7073155647524308
atp2604
s(I12
I22
I0
tp2605
((F-13.57536039651859
F-95.37563270413284
F-68.63046025918675
tp2606
(lp2607
F0.5291900656971026
aF0.4680257206876046
aF-0.7077498139472341
atp2608
s(I8
I49
I0
tp2609
((F12.753835075063762
F-40.65834722812042
F62.29395375049262
tp2610
(lp2611
F0.1804069507730287
aF-0.6834882398170401
aF-0.7073168725151283
atp2612
s(I11
I97
I0
tp2613
((F-77.58935931062024
F-59.716069142862125
F135.7519754584946
tp2614
(lp2615
F-4.460318586675246e-06
aF0.0004187209129353096
aF0.9999999123264475
atp2616
s(I2
I97
I0
tp2617
((F77.4504306208546
F56.298917367299055
F135.36207548730636
tp2618
(lp2619
F0.00013547115691333892
aF0.0003152310741988263
aF0.999999941138466
atp2620
s(I5
I17
I0
tp2621
((F-56.924771253410654
F78.05370835934764
F-98.40204246315534
tp2622
(lp2623
F0.368486467731132
aF0.6033359161680107
aF-0.7072506594982719
atp2624
s(I1
I22
I0
tp2625
((F5.755884471567697
F96.23910552500274
F-77.85109964870026
tp2626
(lp2627
F0.17976462173796598
aF0.6835013604903052
aF-0.7074677172700587
atp2628
s(I7
I63
I0
tp2629
((F-35.422396069134265
F-16.198756718496952
F120.24414812610212
tp2630
(lp2631
F-0.47424404654351027
aF0.5249914840659278
aF-0.7067365322213729
atp2632
s(I3
I40
I0
tp2633
((F-9.414003317127936
F36.74136822931541
F17.859696038237416
tp2634
(lp2635
F-0.649074482781534
aF0.2793667355537357
aF-0.707570874801905
atp2636
s(I8
I96
I0
tp2637
((F12.59219601521545
F-40.12083467721595
F121.50312548553075
tp2638
(lp2639
F-5.913448350738174e-05
aF0.0003431865587428085
aF0.9999999393630475
atp2640
s(I11
I94
I0
tp2641
((F-77.57094729478558
F-59.70336403115198
F92.2109853438028
tp2642
(lp2643
F-0.0001124444840538108
aF-0.0006261673764112762
aF0.9999997976353069
atp2644
s(I10
I32
I0
tp2645
((F61.16534461757146
F-78.96127455272244
F-24.948911320749176
tp2646
(lp2647
F-0.07417916756509578
aF0.7031722853732902
aF-0.707139440409212
atp2648
s(I1
I39
I0
tp2649
((F4.997203377970436
F95.65287180195537
F-5.242428643195581
tp2650
(lp2651
F-0.7072550995471815
aF0.02179362870061521
aF-0.7066224323587287
atp2652
s(I11
I15
I0
tp2653
((F-77.93117353741764
F-59.34439204581395
F-112.16917843185865
tp2654
(lp2655
F-0.6480246803074396
aF0.2851666596164003
aF-0.7062180895131932
atp2656
s(I4
I6
I0
tp2657
((F45.95687950045249
F8.073554409961162
F-156.51820036812114
tp2658
(lp2659
F-0.3093400089660542
aF-0.6366740767106881
aF-0.7063673823850266
atp2660
s(I2
I11
I0
tp2661
((F77.28556471871343
F55.96177797873406
F-127.32902622965321
tp2662
(lp2663
F-0.37412944822734445
aF-0.5997320309948947
aF-0.7073532688606461
atp2664
s(I5
I75
I0
tp2665
((F-57.387931651178405
F77.99311944189185
F177.6030587752357
tp2666
(lp2667
F0.022580928848481393
aF0.7068602378941562
aF-0.7069927197196283
atp2668
s(I4
I53
I0
tp2669
((F45.742298869005026
F8.986098774959373
F75.98608905514584
tp2670
(lp2671
F-0.3508514034164944
aF0.6139154514106007
aF-0.707114637976046
atp2672
s(I3
I94
I0
tp2673
((F-8.923748675664683
F36.481147377433444
F91.6250553902828
tp2674
(lp2675
F-0.0003738253628559567
aF-0.0004147587915338367
aF0.9999998441148593
atp2676
s(I2
I90
I0
tp2677
((F77.48831742094444
F56.33906483626015
F33.62609528103212
tp2678
(lp2679
F0.0005822712471606115
aF-0.0004372999640372915
aF0.9999997348644329
atp2680
s(I1
I73
I0
tp2681
((F4.963158415093858
F95.68527415195649
F169.10711513293813
tp2682
(lp2683
F-0.694108050451632
aF0.13470002955801938
aF-0.7071562177732041
atp2684
s(I4
I100
I0
tp2685
((F45.99818931486516
F8.465487730734822
F178.81409553706385
tp2686
(lp2687
F0.00013416516910172394
aF-1.4405489634264649e-05
aF0.9999999908960946
atp2688
s(I7
I26
I0
tp2689
((F-35.40939906192034
F-16.238920615233383
F-53.98421219615739
tp2690
(lp2691
F-0.6216767259673281
aF0.33654592600402466
aF-0.7072869913130294
atp2692
s(I3
I15
I0
tp2693
((F-8.598741484458515
F36.04535467524738
F-112.89820453289713
tp2694
(lp2695
F0.21802167029649389
aF-0.6734915776158834
aF-0.7063112955075797
atp2696
s(I8
I5
I0
tp2697
((F12.869348764581446
F-40.50436673207787
F-155.52705743973274
tp2698
(lp2699
F0.20101367390367014
aF-0.6775850615810503
aF-0.7074404478300299
atp2700
s(I12
I2107
I0
tp2701
((F-14.129877568637312
F-95.75786054366654
F121.28799549320547
tp2702
(lp2703
F-0.00022271833575234905
aF0.00023732010896114884
aF0.999999947037853
atp2704
s(I5
I45
I0
tp2705
((F-57.91933713038907
F77.5008748023979
F32.34448320685169
tp2706
(lp2707
F-0.706480337821772
aF0.04158351893099765
aF-0.7065099739030938
atp2708
s(I1
I26
I0
tp2709
((F5.3212037600042095
F95.16490954746087
F-63.334004124478724
tp2710
(lp2711
F-0.34293592788847144
aF-0.6181156873677132
aF-0.7073386362932628
atp2712
s(I3
I60
I0
tp2713
((F-9.507499848235966
F36.47627883727773
F105.00632157732662
tp2714
(lp2715
F-0.7074316831137499
aF-0.0008139108970265517
aF-0.7067812612653923
atp2716
s(I11
I34
I0
tp2717
((F-77.28961072439688
F-60.188830506458544
F-10.570461652362155
tp2718
(lp2719
F0.2590524065067322
aF-0.6573043491988885
aF-0.7077025103864591
atp2720
s(I1
I43
I0
tp2721
((F5.074653402407421
F95.92776565858048
F23.81595446967731
tp2722
(lp2723
F-0.5983020565879769
aF0.3763901431452463
aF-0.7073649052827673
atp2724
s(I12
I2201
I0
tp2725
((F-14.020782687535757
F-95.19130414015763
F134.67684208053333
tp2726
(lp2727
F0.13842391405002444
aF0.6932339431177721
aF-0.7072945073506912
atp2728
s(I11
I19
I0
tp2729
((F-77.09029174327588
F-59.13519310345055
F-83.14552085725018
tp2730
(lp2731
F0.418608823271354
aF0.5689770685753948
aF-0.7078359615862441
atp2732
s(I10
I45
I0
tp2733
((F61.070376689160184
F-80.127494478078
F33.133462157414215
tp2734
(lp2735
F-0.14303200720026957
aF-0.6929474079526424
aF-0.7066581455894895
atp2736
s(I4
I18
I0
tp2737
((F46.330430342350155
F8.009067281632724
F-98.39429462576618
tp2738
(lp2739
F0.21685825408935908
aF-0.6737257961466432
aF-0.7064460695905149
atp2740
s(I7
I64
I0
tp2741
((F-35.473405238423766
F-17.01563565807237
F134.75362961067685
tp2742
(lp2743
F-0.5292123507233725
aF-0.46859152495059286
aF-0.7073586576739695
atp2744
s(I12
I2101
I0
tp2745
((F-14.523856976044044
F-95.33544525685602
F120.1458074386328
tp2746
(lp2747
F-0.482135523407075
aF0.5169331470446777
aF-0.7073368777007681
atp2748
s(I2
I55
I0
tp2749
((F78.0374351534465
F56.248244893084575
F90.64488189526355
tp2750
(lp2751
F0.7024898168532033
aF-0.07845865607622095
aF-0.7073558485686439
atp2752
s(I5
I71
I0
tp2753
((F-57.97039240752656
F77.53227797256386
F163.06694271477204
tp2754
(lp2755
F-0.6929379990772989
aF0.14070342529899074
aF-0.7071346940603894
atp2756
s(I4
I65
I0
tp2757
((F45.470266601856565
F8.256053475954104
F134.09209168071675
tp2758
(lp2759
F-0.6565326786940502
aF-0.2625989265477844
aF-0.7071114803075724
atp2760
s(I3
I82
I0
tp2761
((F-8.802949450626329
F36.575428984179325
F-82.70987510221994
tp2762
(lp2763
F0.0006753996752028525
aF0.0009168479543850796
aF0.9999993516123434
atp2764
s(I8
I42
I0
tp2765
((F12.355127800055925
F-39.564153120271385
F18.747520071542112
tp2766
(lp2767
F-0.3254474363727458
aF0.6282906819580978
aF-0.7066362466807345
atp2768
s(I2
I70
I0
tp2769
((F77.39409871333919
F56.86839906178693
F163.29199366177136
tp2770
(lp2771
F-0.06216941922186419
aF0.7042679187513096
aF-0.7072069442046753
atp2772
s(I5
I8
I0
tp2773
((F-56.938433976695705
F77.07244639971486
F-141.97900302905418
tp2774
(lp2775
F0.2914439553003221
aF-0.6440797866271765
aF-0.7072634935985278
atp2776
s(I7
I38
I0
tp2777
((F-35.53481302637374
F-16.52728220645031
F4.097764114742404
tp2778
(lp2779
F-0.7056347807069389
aF0.04324297027634152
aF-0.7072549764959946
atp2780
s(I3
I3
I0
tp2781
((F-8.992571516706448
F37.14987192872604
F-171.02909099923045
tp2782
(lp2783
F-0.3368932733029315
aF0.6226993485079596
aF-0.7062212427922279
atp2784
s(I8
I25
I0
tp2785
((F12.09213631302373
F-39.88528678321563
F-53.8341033544998
tp2786
(lp2787
F-0.6839002300226342
aF0.1783687517261131
aF-0.7074355545084345
atp2788
s(I5
I57
I0
tp2789
((F-56.93629280372261
F77.06507387031661
F90.45332554661854
tp2790
(lp2791
F0.5402885221164676
aF-0.45683019373446115
aF-0.7066784891035938
atp2792
s(I1
I14
I0
tp2793
((F5.953096782281136
F96.19235611724662
F-121.43301135082129
tp2794
(lp2795
F0.393086506539754
aF0.5874589434541777
aF-0.7073718881409362
atp2796
s(I10
I66
I0
tp2797
((F60.578845957856174
F-79.72112983927627
F134.77724794582718
tp2798
(lp2799
F-0.6890999840147604
aF-0.15949758334186498
aF-0.7068958430624429
atp2800
s(I3
I48
I0
tp2801
((F-9.471350320169222
F36.40342701339341
F46.90845542326588
tp2802
(lp2803
F-0.6978651401313283
aF-0.11687064003773281
aF-0.7066296764831295
atp2804
s(I8
I72
I0
tp2805
((F12.013528123290598
F-40.050105278387036
F163.90422961854324
tp2806
(lp2807
F-0.7002992254214055
aF0.09879801082680176
aF-0.7069794536836601
atp2808
s(I11
I54
I0
tp2809
((F-77.12202037507086
F-60.07071886910626
F76.55235825925001
tp2810
(lp2811
F0.5398694767793719
aF-0.45736829639625004
aF-0.7066506842093618
atp2812
s(I2
I16
I0
tp2813
((F77.08372425079506
F56.74211110947272
F-98.26627072381689
tp2814
(lp2815
F-0.5935192514411047
aF0.38340264139649943
aF-0.7076279479634604
atp2816
s(I4
I46
I0
tp2817
((F45.82762024735712
F7.9579394922106985
F46.92177804161474
tp2818
(lp2819
F-0.2650962098536624
aF-0.6551010514207919
aF-0.7075073228939724
atp2820
s(I7
I76
I0
tp2821
((F-34.75671956325823
F-16.388538768540002
F-169.0579061493977
tp2822
(lp2823
F-0.000544712956061793
aF0.0017590952349990556
aF0.9999983044344374
atp2824
s(I10
I35
I0
tp2825
((F61.793828773879795
F-79.54257397604624
F-10.424920078486139
tp2826
(lp2827
F0.7070756171435945
aF-7.783369510058928e-05
aF-0.7071379395725568
atp2828
s(I2
I35
I0
tp2829
((F77.16529211038505
F55.90212434085561
F-11.140044692681386
tp2830
(lp2831
F-0.42344773046130263
aF-0.5660674323918303
aF-0.7072903799377542
atp2832
s(I5
I83
I0
tp2833
((F-57.25610570082699
F77.53729724285085
F-68.21194525798819
tp2834
(lp2835
F-0.0008108505252196631
aF0.0009751066262415071
aF0.9999991958439233
atp2836
s(I1
I80
I0
tp2837
((F5.6314928865176626
F95.7126056473112
F-120.29079489986862
tp2838
(lp2839
F-0.0005122631806275959
aF0.0007935110865468883
aF0.9999995539631952
atp2840
s(I4
I93
I0
tp2841
((F46.028812198488595
F8.484123031819763
F77.12809538845886
tp2842
(lp2843
F-0.0004929512058981698
aF-0.00026910440814373543
aF0.9999998422909506
atp2844
s(I12
I11
I0
tp2845
((F-13.946836375578641
F-95.18059279421732
F-126.73758256519159
tp2846
(lp2847
F0.006216900691629515
aF0.7074488809866476
aF-0.7067371724598406
atp2848
s(I8
I62
I0
tp2849
((F13.057258903869297
F-39.7779143335365
F120.36103523187876
tp2850
(lp2851
F0.5689023164832951
aF0.4197546125348709
aF-0.7072172364667316
atp2852
s(I5
I4
I0
tp2853
((F-56.92972869808
F77.08250260100885
F-156.49754833524958
tp2854
(lp2855
F0.2823032150125647
aF-0.6473962284005231
aF-0.7079428071859669
atp2856
s(I1
I97
I0
tp2857
((F5.5357641137852625
F95.58206355110724
F126.65715550414961
tp2858
(lp2859
F-0.00013103591403865588
aF-0.0002585851168197248
aF0.9999999579816624
atp2860
s(I7
I50
I0
tp2861
((F-34.45892387510048
F-16.795363322408775
F62.16976377061974
tp2862
(lp2863
F0.6655110360896802
aF-0.23861382562167277
aF-0.7072188508976768
atp2864
s(I3
I23
I0
tp2865
((F-8.823193041032937
F35.98659228532688
F-69.30597079702284
tp2866
(lp2867
F-0.008786473372010075
aF-0.7069468578207055
aF-0.7072120884876857
atp2868
s(I12
I94
I0
tp2869
((F-14.118933419220411
F-95.75790891187171
F92.23499545054074
tp2870
(lp2871
F-0.00037856891831036864
aF0.0002189519022702543
aF0.9999999043728147
atp2872
s(I11
I77
I0
tp2873
((F-77.3526274058504
F-59.54183113623412
F-154.5948555548498
tp2874
(lp2875
F-0.000482555548712417
aF-0.0014032724587360718
aF0.9999988989826684
atp2876
s(I5
I53
I0
tp2877
((F-57.019210232242585
F77.90404606013908
F75.92591304435518
tp2878
(lp2879
F0.42929456284079287
aF0.5617813028750164
aF-0.7071831064550268
atp2880
s(I1
I50
I0
tp2881
((F5.221622074688639
F95.13353983459274
F52.852033791416034
tp2882
(lp2883
F-0.4065666513495278
aF-0.5783536923729616
aF-0.7072556571205304
atp2884
s(I8
I92
I0
tp2885
((F12.606163907707014
F-40.09988044338161
F63.43612539988453
tp2886
(lp2887
F-0.0003612419914893181
aF-0.00040257960586489967
aF0.9999998537169316
atp2888
s(I11
I58
I0
tp2889
((F-77.01983143193866
F-59.55751435127877
F105.57872246857823
tp2890
(lp2891
F0.6823745134575794
aF0.18414638067105657
aF-0.7074285362277112
atp2892
s(I4
I11
I0
tp2893
((F45.68334332631821
F8.87021373577818
F-127.45683748688953
tp2894
(lp2895
F-0.6083104023264545
aF0.36046690360695977
aF-0.7071223839092055
atp2896
s(I2
I28
I0
tp2897
((F78.09489178126569
F56.26755538717816
F-40.19024316668583
tp2898
(lp2899
F0.6921031421474363
aF-0.1426725715752404
aF-0.7075576145797271
atp2900
s(I4
I58
I0
tp2901
((F45.554238356833594
F8.130116306947912
F105.03887166345066
tp2902
(lp2903
F-0.5655024389902885
aF-0.42405147498632667
aF-0.7073806175305879
atp2904
s(I7
I88
I0
tp2905
((F-34.95817331816943
F-16.56326587801732
F5.239884871187314
tp2906
(lp2907
F-0.00027846786729548393
aF-0.0011280142421714533
aF0.9999993250195304
atp2908
s(I3
I77
I0
tp2909
((F-8.73215430010714
F36.63035813790475
F-155.34182532322438
tp2910
(lp2911
F0.0008405501944809251
aF0.0010160016797737185
aF0.9999991306076007
atp2912
s(I2
I47
I0
tp2913
((F77.50726156084966
F55.75457659312087
F47.024977225837574
tp2914
(lp2915
F0.032003357055414204
aF-0.7062373765257334
aF-0.7072514073052335
atp2916
s(I12
I92
I0
tp2917
((F-14.104836939484812
F-95.75839939828529
F63.19100540055342
tp2918
(lp2919
F-0.0004920891830860362
aF-0.00022153450849403245
aF0.9999998543853381
atp2920
s(I1
I68
I0
tp2921
((F5.081054206919362
F95.93876319987294
F140.04810155337964
tp2922
(lp2923
F-0.5535502917481775
aF0.43987347937412785
aF-0.7071728195065237
atp2924
s(I7
I9
I0
tp2925
((F-34.3782103643598
F-16.824017336053203
F-141.1540050328672
tp2926
(lp2927
F0.5117197702140028
aF-0.4896787400216276
aF-0.7059444796462109
atp2928
s(I12
I23
I0
tp2929
((F-13.893182348605478
F-96.32496962132973
F-68.62967005800829
tp2930
(lp2931
F0.1403768173731056
aF-0.693362811805046
aF-0.7067831070066674
atp2932
s(I8
I50
I0
tp2933
((F12.048902568072663
F-39.947487073382945
F62.293985277075535
tp2934
(lp2935
F-0.6819850145767189
aF0.18615542089271303
aF-0.707278303898154
atp2936
s(I11
I96
I0
tp2937
((F-77.58354218003115
F-59.71249601240834
F121.23697542392983
tp2938
(lp2939
F0.0004926702705809129
aF4.185136682775321e-05
aF0.9999998777622263
atp2940
s(I5
I16
I0
tp2941
((F-57.80321951821497
F77.57352047724271
F-98.4025363682108
tp2942
(lp2943
F-0.7061791463944637
aF0.01588936308853988
aF-0.7078548872037455
atp2944
s(I1
I21
I0
tp2945
((F5.7281520973647275
F96.25761307936682
F-92.3792949656322
tp2946
(lp2947
F0.1370635993930156
aF0.694330573522661
aF-0.7064832796274259
atp2948
s(I7
I62
I0
tp2949
((F-35.21284917578669
F-17.177706139767906
F120.24378745866807
tp2950
(lp2951
F-0.21789105473939743
aF-0.6726240422654606
aF-0.707177761267296
atp2952
s(I3
I43
I0
tp2953
((F-9.361286280831337
F36.16752399403731
F32.3827090863233
tp2954
(lp2955
F-0.5730638281379031
aF-0.413498701632342
aF-0.7075427002155412
atp2956
s(I8
I97
I0
tp2957
((F12.589503223018255
F-40.12484594543821
F136.01712550272623
tp2958
(lp2959
F-0.0001819266798521079
aF0.00023191833751040673
aF0.999999956558283
atp2960
s(I11
I81
I0
tp2961
((F-77.41870729266884
F-59.59010265527377
F-96.51391533509559
tp2962
(lp2963
F-0.000922442366773824
aF-0.0009547914981073338
aF0.9999991187362492
atp2964
s(I1
I38
I0
tp2965
((F5.848333043983075
F95.12577599985161
F-5.242982754637069
tp2966
(lp2967
F0.3339898113626138
aF-0.6230385789162537
aF-0.7073003146386836
atp2968
s(I8
I80
I0
tp2969
((F12.679690774970368
F-39.98795490312705
F-110.82581492448162
tp2970
(lp2971
F-0.0006643747266791925
aF-0.0007070393519321495
aF0.9999995293506779
atp2972
s(I11
I14
I0
tp2973
((F-77.33966765071818
F-60.152087606781606
F-112.16999500531756
tp2974
(lp2975
F0.07560477228320574
aF-0.7029423512737972
aF-0.7072170594617115
atp2976
s(I4
I7
I0
tp2977
((F45.76799446899349
F8.195386224489084
F-141.98338954303836
tp2978
(lp2979
F-0.5219051616944844
aF-0.4760462725932334
aF-0.7078099664081758
atp2980
s(I12
I2301
I0
tp2981
((F-13.895400969668117
F-95.23317831492022
F149.20687840733854
tp2982
(lp2983
F0.2959537165787795
aF0.6420348357118455
aF-0.7072500741432772
atp2984
s(I2
I8
I0
tp2985
((F77.09916225172492
F56.748892205854645
F-141.83502175453532
tp2986
(lp2987
F-0.6153828840174037
aF0.34777251940473
aF-0.7073600079205138
atp2988
s(I5
I74
I0
tp2989
((F-57.91597521667882
F77.14257727291852
F177.60295046465444
tp2990
(lp2991
F-0.6234107423063625
aF-0.3336659478605974
aF-0.7071252234331054
atp2992
s(I4
I54
I0
tp2993
((F46.60737081972911
F8.482211450766044
F75.98637989515646
tp2994
(lp2995
F0.7074500543192463
aF-0.0025242439024179353
aF-0.7067588335750864
atp2996
s(I7
I100
I0
tp2997
((F-35.051689070614884
F-16.642035396273968
F179.49883552886104
tp2998
(lp2999
F-0.00014422029024937203
aF-0.00011753252487827067
aF0.9999999826933066
atp3000
s(I3
I65
I0
tp3001
((F-9.409435890100212
F36.80546900846775
F134.06201674982913
tp3002
(lp3003
F-0.5749356834296995
aF0.4115813268871236
aF-0.7071419739182926
atp3004
s(I2
I91
I0
tp3005
((F77.48147196848731
F56.331767347471214
F48.16709531518654
tp3006
(lp3007
F0.0006568187897656875
aF-0.00017478875370694855
aF0.9999997690189578
atp3008
s(I10
I40
I0
tp3009
((F60.64762365562456
F-79.37415696295375
F18.611728472790674
tp3010
(lp3011
F-0.6710113998323909
aF0.22160469563121157
aF-0.707555694040528
atp3012
s(I1
I72
I0
tp3013
((F5.670584934667204
F95.01571697172312
F154.5782575302037
tp3014
(lp3015
F0.1697751983308545
aF-0.6865513974422693
aF-0.7069820087539613
atp3016
s(I7
I21
I0
tp3017
((F-35.41176475812972
F-16.683154176033895
F-83.0392012905877
tp3018
(lp3019
F-0.6655053091744202
aF-0.241958642311084
aF-0.7060868918707075
atp3020
s(I3
I14
I0
tp3021
((F-8.38908333668769
F37.02428005832144
F-112.8989498158353
tp3022
(lp3023
F0.47451076721644286
aF0.5240945411510649
aF-0.7072230509049584
atp3024
s(I8
I6
I0
tp3025
((F12.142226316882443
F-39.81622127458468
F-155.5261768815053
tp3026
(lp3027
F-0.6885247577941609
aF0.16427016235696928
aF-0.7063632009552219
atp3028
s(I5
I44
I0
tp3029
((F-57.08342884906051
F76.94995827125103
F32.343916712804
tp3030
(lp3031
F0.31614321611866064
aF-0.6323902095144048
aF-0.707203004668728
atp3032
s(I1
I25
I0
tp3033
((F6.179141646140124
F95.68085002324051
F-63.334098913011076
tp3034
(lp3035
F0.7066379425677667
aF0.013069449504580154
aF-0.7074545975631515
atp3036
s(I3
I63
I0
tp3037
((F-9.508270087268102
F36.54518963363398
F119.53728733553407
tp3038
(lp3039
F-0.7018189328701454
aF0.08860697162890369
aF-0.7068231674497979
atp3040
s(I11
I37
I0
tp3041
((F-77.4097705478789
F-60.228515522215275
F3.950552670005891
tp3042
(lp3043
F0.1267493417176941
aF-0.6950782944713677
aF-0.7076727837983497
atp3044
s(I10
I79
I0
tp3045
((F61.311792260281436
F-79.4795366091148
F-125.44983509880421
tp3046
(lp3047
F-0.0011028894174467862
aF0.0002712546606790813
aF0.999999355027713
atp3048
s(I10
I34
I0
tp3049
((F60.926462156669004
F-79.04264697702274
F-10.425303480387356
tp3050
(lp3051
F-0.35403306244827465
aF0.6115169260064769
aF-0.7076069812410595
atp3052
s(I1
I42
I0
tp3053
((F5.024239132999355
F95.82006258782894
F9.2875398262604
tp3054
(lp3055
F-0.667045166896397
aF0.23600474402356145
aF-0.7066487855494631
atp3056
s(I11
I18
I0
tp3057
((F-76.88392276226477
F-59.36716860923298
F-97.65521017743777
tp3058
(lp3059
F0.6536018863662623
aF0.2720716211255422
aF-0.7062447218327249
atp3060
s(I4
I19
I0
tp3061
((F46.50742930621345
F8.997985673236599
F-83.86735476916465
tp3062
(lp3063
F0.4484132219446735
aF0.5459328676804791
aF-0.7077308007790571
atp3064
s(I7
I67
I0
tp3065
((F-34.964816081741446
F-16.064247895510107
F149.28266949989938
tp3066
(lp3067
F0.09829231916137278
aF0.700036681312957
aF-0.7073098789146242
atp3068
s(I2
I52
I0
tp3069
((F77.32836131994372
F56.87915541007669
F76.10686053640211
tp3070
(lp3071
F-0.17158060068158176
aF0.6856900589262037
aF-0.7073819622802994
atp3072
s(I5
I70
I0
tp3073
((F-57.22016794973388
F76.86939393005287
F163.06684724397905
tp3074
(lp3075
F0.2248626955886946
aF-0.6702477885414779
aF-0.7072514899863022
atp3076
s(I4
I66
I0
tp3077
((F46.08910345814911
F9.043005136083593
F134.09226463669484
tp3078
(lp3079
F0.10053261115430122
aF0.7001326570917039
aF-0.7068998914755955
atp3080
s(I3
I85
I0
tp3081
((F-8.840094054108704
F36.54492801938295
F-39.100904969920066
tp3082
(lp3083
F0.0006807961928996729
aF-0.0007541168413007249
aF0.9999994839120335
atp3084
s(I8
I43
I0
tp3085
((F12.255327394372216
F-40.53703170759127
F33.26293668181506
tp3086
(lp3087
F-0.4407133704359488
aF-0.5526551889484915
aF-0.7073499609438693
atp3088
s(I2
I71
I0
tp3089
((F77.96883366309521
F56.04868463866569
F163.29203900990342
tp3090
(lp3091
F0.6409430035410789
aF-0.2985445850990736
aF-0.7071514667451115
atp3092
s(I10
I42
I0
tp3093
((F61.31360609242438
F-80.12163192602429
F18.61248574240153
tp3094
(lp3095
F0.14373029084596814
aF-0.6928323548088173
aF-0.7066292745304305
atp3096
s(I10
I1
I0
tp3097
((F61.239550294756555
F-80.01773085530795
F-170.1503990241231
tp3098
(lp3099
F-0.14209277198781603
aF-0.6919400372577161
aF-0.7078337580170989
atp3100
s(I7
I33
I0
tp3101
((F-34.69606706968443
F-17.067417439420296
F-24.9333910003852
tp3102
(lp3103
F0.28760836333728146
aF-0.6469144955358028
aF-0.7062457538308518
atp3104
s(I3
I2
I0
tp3105
((F-9.02078473927395
F36.14914453035499
F-171.02992059026292
tp3106
(lp3107
F-0.371408430736612
aF-0.601558661020666
aF-0.7072361380251936
atp3108
s(I8
I26
I0
tp3109
((F13.057586653989347
F-39.62041391429284
F-53.83405400439051
tp3110
(lp3111
F0.49720095163241884
aF0.502405779005552
aF-0.7073751811575252
atp3112
s(I5
I56
I0
tp3113
((F-57.27493401334323
F78.00718531055509
F90.45291895273931
tp3114
(lp3115
F0.12600565756321103
aF0.695718920497493
aF-0.7071759030989856
atp3116
s(I1
I13
I0
tp3117
((F5.055307604328846
F95.74938142248084
F-121.43311974987819
tp3118
(lp3119
F-0.7052401644037801
aF0.045537817912680176
aF-0.707504500092742
atp3120
s(I3
I51
I0
tp3121
((F-9.47271558958164
F36.36346107512236
F61.43341626951542
tp3122
(lp3123
F-0.6896507695993624
aF-0.15813248010852415
aF-0.7066653626192062
atp3124
s(I8
I73
I0
tp3125
((F12.687092302767269
F-39.56383163618921
F178.4180877189483
tp3126
(lp3127
F0.12522323457049714
aF0.6958833951998445
aF-0.7071530540193114
atp3128
s(I11
I41
I0
tp3129
((F-77.14066706448102
F-59.23621073471304
F18.461943121449167
tp3130
(lp3131
F0.46989807868218014
aF0.528287917749126
aF-0.707182912414524
atp3132
s(I10
I72
I0
tp3133
((F60.90323917054957
F-79.06578963192942
F163.79518099527354
tp3134
(lp3135
F-0.2841456205902235
aF0.6476447354537271
aF-0.7069777669336346
atp3136
s(I2
I17
I0
tp3137
((F78.08356047218331
F56.6913225807084
F-98.26603461453578
tp3138
(lp3139
F0.6296485205640912
aF0.3212695737565715
aF-0.7073390993927327
atp3140
s(I4
I47
I0
tp3141
((F45.68917428952591
F8.949445727416332
F46.92209789810022
tp3142
(lp3143
F-0.43446658288171264
aF0.5578760809369875
aF-0.707116020662434
atp3144
s(I7
I79
I0
tp3145
((F-34.81364340019263
F-16.44146788253647
F-125.48597588478924
tp3146
(lp3147
F0.0011614501094321483
aF-0.0012300187606979133
aF0.999998569042722
atp3148
s(I2
I32
I0
tp3149
((F78.06422207666219
F56.18039116580803
F-25.669041948306585
tp3150
(lp3151
F0.6656451789530986
aF-0.2380006001501514
aF-0.7072992365785963
atp3152
s(I5
I82
I0
tp3153
((F-57.2413050511077
F77.54918279990034
F-82.74093531577
tp3154
(lp3155
F-0.0006502008058075312
aF0.001140663675633772
aF0.9999991380622741
atp3156
s(I1
I87
I0
tp3157
((F5.580927001787131
F95.64257734874172
F-18.602824716859686
tp3158
(lp3159
F-0.0002081479110481019
aF-0.0006947874827443088
aF0.9999997369723659
atp3160
s(I4
I94
I0
tp3161
((F46.02229036939207
F8.48072605431662
F91.65409541700637
tp3162
(lp3163
F-0.00036478030591707226
aF0.00035391809200519746
aF0.9999998708386479
atp3164
s(I12
I4
I0
tp3165
((F-13.92086806705629
F-95.18089409442246
F-155.7744884380636
tp3166
(lp3167
F-0.00042995066269280494
aF0.7063305242232427
aF-0.7078820563433903
atp3168
s(I8
I63
I0
tp3169
((F12.65708301802988
F-40.695580490455995
F120.36132649839283
tp3170
(lp3171
F0.0793398899353099
aF-0.7028889210696776
aF-0.7068609102946332
atp3172
s(I5
I3
I0
tp3173
((F-57.650550117388775
F77.34943598388645
F-171.01900837774383
tp3174
(lp3175
F-0.6215579153528762
aF-0.3392817677571426
aF-0.7060833094825109
atp3176
s(I1
I96
I0
tp3177
((F5.5383702612944035
F95.5862289471088
F112.11115548758153
tp3178
(lp3179
F-0.00026488840425670815
aF0.00021681088422661525
aF0.9999999414135852
atp3180
s(I7
I45
I0
tp3181
((F-35.51701843298633
F-16.802028034949217
F33.15243339211338
tp3182
(lp3183
F-0.6548275645977935
aF-0.2686371559337809
aF-0.7064240504786995
atp3184
s(I3
I22
I0
tp3185
((F-8.312832114801495
F36.847860856903935
F-69.30638623649338
tp3186
(lp3187
F0.6155728203843848
aF0.3467016670664046
aF-0.7077203238973641
atp3188
s(I12
I52
I0
tp3189
((F-14.339602744134027
F-96.2892940127258
F76.57072257502296
tp3190
(lp3191
F-0.2785662617434868
aF-0.6495469490173659
aF-0.707452895138956
atp3192
s(I11
I76
I0
tp3193
((F-77.33521543197367
F-59.528832606061314
F-169.11184560902075
tp3194
(lp3195
F-0.0005805816715349116
aF-0.0014047422860994307
aF0.9999988448113489
atp3196
s(I5
I52
I0
tp3197
((F-57.94309085684654
F77.51843417867576
F75.92565159192782
tp3198
(lp3199
F-0.7009515524944698
aF0.09003601517848628
aF-0.7075029590230502
atp3200
s(I1
I49
I0
tp3201
((F6.129526961809461
F95.55539373375632
F52.85197294971795
tp3202
(lp3203
F0.704135255840458
aF-0.06227107512603576
aF-0.7073300889154513
atp3204
s(I8
I93
I0
tp3205
((F12.602842287571548
F-40.10555399606574
F77.95812542333215
tp3206
(lp3207
F0.0004471378744479406
aF0.00021386770942793162
aF0.9999998771641545
atp3208
s(I11
I61
I0
tp3209
((F-77.15079639329178
F-59.33001568509371
F120.09474607599805
tp3210
(lp3211
F0.5297473378699074
aF0.46794312073355643
aF-0.7073874424796404
atp3212
s(I10
I31
I0
tp3213
((F60.75931003417281
F-79.87636348580872
F-24.949313348544365
tp3214
(lp3215
F-0.5709089380121884
aF-0.41631835472014195
aF-0.7076312684024846
atp3216
s(I10
I74
I0
tp3217
((F61.31980850037144
F-79.04936484791824
F178.30507143696514
tp3218
(lp3219
F0.22815576029660176
aF0.6692815898839163
aF-0.7071118033846817
atp3220
s(I2
I29
I0
tp3221
((F77.14446393924845
F55.95300988107192
F-40.19003894348907
tp3222
(lp3223
F-0.4706199930060128
aF-0.5274775202945065
aF-0.7073077744284867
atp3224
s(I4
I59
I0
tp3225
((F45.947794876025
F9.050640732694774
F105.03909031138028
tp3226
(lp3227
F-0.08403793466552302
aF0.702088773617754
aF-0.7071131306213112
atp3228
s(I7
I91
I0
tp3229
((F-34.99228525036506
F-16.59266148213601
F48.801865092805656
tp3230
(lp3231
F0.0007195999365162569
aF-0.0006236183605411185
aF0.9999995466379331
atp3232
s(I3
I76
I0
tp3233
((F-8.716601050975441
F36.64038372141658
F-169.8878153670289
tp3234
(lp3235
F0.0010437993261453583
aF-0.000858414807959165
aF0.9999990868030751
atp3236
s(I2
I44
I0
tp3237
((F77.29591214137872
F55.79429399579658
F32.48396878200674
tp3238
(lp3239
F-0.23498073244737894
aF-0.6667570143716938
aF-0.707261719001275
atp3240
s(I1
I91
I0
tp3241
((F5.5589785077045235
F95.61247997075452
F39.474165382398496
tp3242
(lp3243
F0.00036335800791877126
aF-0.00044216547002900195
aF0.9999998362303142
atp3244
s(I7
I8
I0
tp3245
((F-34.65797619721707
F-15.862777616498079
F-141.15513654273627
tp3246
(lp3247
F0.16946316544224063
aF0.68627130157598
aF-0.707328732762572
atp3248
s(I12
I16
I0
tp3249
((F-13.762886332138805
F-95.22336171258121
F-97.69446882241255
tp3250
(lp3251
F0.26639963231555164
aF0.6542588960055886
aF-0.7077969573964608
atp3252
s(I8
I51
I0
tp3253
((F13.016991695045363
F-39.6924277909111
F62.294437673251196
tp3254
(lp3255
F0.5023443737889401
aF0.49818681923231944
aF-0.7067248568331115
atp3256
s(I11
I99
I0
tp3257
((F-77.59749150766766
F-59.72223777524687
F164.78797551327057
tp3258
(lp3259
F-0.00022665736606549983
aF0.00012008852858654963
aF0.9999999671025913
atp3260
s(I5
I31
I0
tp3261
((F-56.88145554345829
F77.10116138035755
F-25.76548165967006
tp3262
(lp3263
F0.5071327776513799
aF-0.491872868802046
aF-0.7077269436499088
atp3264
s(I1
I20
I0
tp3265
((F5.069080912784557
F95.50403716086157
F-92.3800082015
tp3266
(lp3267
F-0.669223085556589
aF-0.22757019138070875
aF-0.7073558296593488
atp3268
s(I7
I57
I0
tp3269
((F-34.54296590853755
F-16.94108293602949
F91.20223881676202
tp3270
(lp3271
F0.5849577380170098
aF-0.3981266239840127
aF-0.7066255274253229
atp3272
s(I3
I42
I0
tp3273
((F-8.81593914518271
F35.938516707258714
F17.86052051728575
tp3274
(lp3275
F0.08257816698919213
aF-0.7028162324955022
aF-0.7065622334073152
atp3276
s(I8
I98
I0
tp3277
((F12.587718158451025
F-40.128143286491195
F150.53212551764318
tp3278
(lp3279
F0.0001630087520672922
aF0.0001745772839201085
aF0.9999999714754589
atp3280
s(I11
I80
I0
tp3281
((F-77.40069629192112
F-59.57749660760919
F-111.02790539034731
tp3282
(lp3283
F0.0013685583804864763
aF-8.743833831751688e-06
aF0.9999990634853138
atp3284
s(I1
I37
I0
tp3285
((F5.879246429634804
F96.12642396808496
F-5.24306186246622
tp3286
(lp3287
F0.37180826226863994
aF0.6011222583126978
aF-0.7073970926359653
atp3288
s(I8
I81
I0
tp3289
((F12.673178098386416
F-39.999662534287836
F-96.30781489645415
tp3290
(lp3291
F0.0004529486892287944
aF-0.00082467051230936
aF0.9999995573779176
atp3292
s(I11
I1
I0
tp3293
((F-77.19347383072727
F-60.087746309282466
F-170.25454976619676
tp3294
(lp3295
F0.17300156863577593
aF-0.6847264574789196
aF-0.7079690216936969
atp3296
s(I10
I76
I0
tp3297
((F61.35521269707897
F-79.4526206210694
F-169.00780520659737
tp3298
(lp3299
F-0.0008624526197606373
aF-0.0008727572937013263
aF0.9999992472348092
atp3300
s(I12
I8
I0
tp3301
((F-13.699012303315612
F-95.23152347625091
F-141.2625539597193
tp3302
(lp3303
F0.29076505402254305
aF0.6449753145694251
aF-0.706726628163492
atp3304
s(I2
I9
I0
tp3305
((F78.10023362954416
F56.75925187801931
F-141.8341421501177
tp3306
(lp3307
F0.6092959390062519
aF0.36044621220499523
aF-0.7062839279054574
atp3308
s(I5
I73
I0
tp3309
((F-56.915362304339396
F77.11054922765334
F177.6028874049996
tp3310
(lp3311
F0.6007072086588379
aF-0.3728480378173821
aF-0.7072023686053628
atp3312
s(I4
I55
I0
tp3313
((F45.45948572763882
F8.610190248448362
F90.51184414970157
tp3314
(lp3315
F-0.6887689551086704
aF0.1586265658085713
aF-0.7074142627190163
atp3316
s(I3
I64
I0
tp3317
((F-8.995501915032946
F35.89392600612791
F134.06187828827296
tp3318
(lp3319
F-0.06854204894376248
aF-0.7035713345271485
aF-0.7073113633742062
atp3320
s(I2
I88
I0
tp3321
((F77.5037294258982
F56.355862549842186
F4.524105210077778
tp3322
(lp3323
F0.0007742762008816555
aF-0.00026958638256827084
aF0.9999996639097171
atp3324
s(I1
I79
I0
tp3325
((F5.639546839624018
F95.72238447944665
F-134.81878492597252
tp3326
(lp3327
F-0.0007583100731326911
aF-0.0006076567779478984
aF0.9999995278594251
atp3328
s(I7
I20
I0
tp3329
((F-34.425999826848056
F-16.857849666069797
F-83.04019427388539
tp3330
(lp3331
F0.540448094917896
aF-0.45567553789420834
aF-0.7073016759943671
atp3332
s(I12
I28
I0
tp3333
((F-13.77357166677939
F-95.24232727465142
F-39.59043887435746
tp3334
(lp3335
F0.31794081943447117
aF0.6309322083552322
aF-0.707699218451827
atp3336
s(I8
I7
I0
tp3337
((F12.820441950285385
F-39.398602108622526
F-141.00512033267296
tp3338
(lp3339
F0.15137822583794946
aF0.6903050535358938
aF-0.707505170161294
atp3340
s(I10
I68
I0
tp3341
((F61.3872764566604
F-79.07160110733093
F149.29006730314177
tp3342
(lp3343
F0.3046861683909087
aF0.6380847162642584
aF-0.7071168458332948
atp3344
s(I5
I43
I0
tp3345
((F-57.024275610940094
F77.94933446950654
F32.343586893551674
tp3346
(lp3347
F0.3885094026312424
aF0.5902147848501501
aF-0.7076064950319536
atp3348
s(I1
I24
I0
tp3349
((F5.050769364186635
F95.52842693000821
F-77.85031227400486
tp3350
(lp3351
F-0.6828507311108587
aF-0.18592018581542377
aF-0.7065044681583579
atp3352
s(I3
I62
I0
tp3353
((F-8.710897424489303
F35.939839515118365
F119.53702150839536
tp3354
(lp3355
F0.27366137333139134
aF-0.6519590729984602
aF-0.707148371900385
atp3356
s(I11
I36
I0
tp3357
((F-77.14118868090827
F-59.19876898977327
F-10.569417532932675
tp3358
(lp3359
F0.4406272048256132
aF0.5539053605589859
aF-0.7064251679488684
atp3360
s(I1
I41
I0
tp3361
((F5.674572334039112
F95.0589328662436
F9.287015853878074
tp3362
(lp3363
F0.12855174743739559
aF-0.6951371028543988
aF-0.7072897966646946
atp3364
s(I12
I2203
I0
tp3365
((F-13.699679334589746
F-96.13953648697043
F134.67707269655511
tp3366
(lp3367
F0.5312515236192802
aF-0.4668032931654993
aF-0.7070123790585554
atp3368
s(I11
I21
I0
tp3369
((F-78.00759174943232
F-59.53620565300753
F-83.14424265401522
tp3370
(lp3371
F-0.7035867731569821
aF0.07839109429751927
aF-0.7062722484802746
atp3372
s(I4
I28
I0
tp3373
((F46.528267405148654
F8.137181624980713
F-40.26132021551439
tp3374
(lp3375
F0.5189172307407007
aF-0.47951684251081655
aF-0.7076641190486198
atp3376
s(I7
I66
I0
tp3377
((F-34.492398464297366
F-16.815942151103627
F134.7540904706957
tp3378
(lp3379
F0.6709200755308683
aF-0.2242928520499363
aF-0.7067948562128613
atp3380
s(I10
I47
I0
tp3381
((F61.63405504797629
F-79.21043624084632
F47.652065375366874
tp3382
(lp3383
F0.5568970293489028
aF0.4356959569170326
aF-0.7071313398715393
atp3384
s(I12
I14
I0
tp3385
((F-13.410214710247601
F-95.91617570322114
F-112.21060146256468
tp3386
(lp3387
F0.6805465244735374
aF-0.19329663219868784
aF-0.7067480739327375
atp3388
s(I2
I53
I0
tp3389
((F78.02410667523873
F56.15930099072921
F76.10698515660715
tp3390
(lp3391
F0.679572096046618
aF-0.19495689849167147
aF-0.7072295058927578
atp3392
s(I5
I69
I0
tp3393
((F-57.91119625791907
F77.69090194777709
F148.544152350104
tp3394
(lp3395
F-0.6249718913536906
aF0.33126019739375806
aF-0.7068782191017341
atp3396
s(I4
I67
I0
tp3397
((F45.42827872851012
F8.528637522838835
F148.61796167688
tp3398
(lp3399
F-0.7031214516849493
aF0.07340720146338169
aF-0.7072705330732817
atp3400
s(I3
I84
I0
tp3401
((F-8.82915786072408
F36.55390523166943
F-53.63789501380688
tp3402
(lp3403
F-0.0002930104217056867
aF-0.0010169045547550224
aF0.9999994400248529
atp3404
s(I8
I44
I0
tp3405
((F12.40503965597236
F-39.5471639197558
F33.262973176569176
tp3406
(lp3407
F-0.25756016039364565
aF0.6583175191080889
aF-0.7073053144246625
atp3408
s(I2
I68
I0
tp3409
((F77.75119231199278
F55.803646050261705
F148.76602715104946
tp3410
(lp3411
F0.3716955428202755
aF-0.6014638147931243
aF-0.7071659656276191
atp3412
s(I10
I14
I0
tp3413
((F61.03456660562733
F-80.00248609237633
F-112.07087793130859
tp3414
(lp3415
F-0.3243321246601886
aF-0.6282922973703012
aF-0.7071474117739219
atp3416
s(I7
I32
I0
tp3417
((F-34.59045550318024
F-16.07187864355319
F-24.934229417934603
tp3418
(lp3419
F0.41681018833121886
aF0.5709959430316083
aF-0.7072714471436963
atp3420
s(I3
I5
I0
tp3421
((F-8.241783197383484
F36.32476753232777
F-156.4839280171168
tp3422
(lp3423
F0.600484343191647
aF-0.37314878831142434
aF-0.7072330134852389
atp3424
s(I8
I27
I0
tp3425
((F12.804248000265943
F-40.58895458202278
F-53.83334584991189
tp3426
(lp3427
F0.1872745156727429
aF-0.6824760099334906
aF-0.7065088475346941
atp3428
s(I5
I39
I0
tp3429
((F-56.74226034440926
F77.4794407330096
F3.2875542525184756
tp3430
(lp3431
F0.7077547973445354
aF-0.005692665525590393
aF-0.7064352343952058
atp3432
s(I1
I12
I0
tp3433
((F6.129923562248223
F96.03042664851046
F-135.96022642337311
tp3434
(lp3435
F0.599388037385578
aF0.37642970262223213
aF-0.7064238526711869
atp3436
s(I3
I50
I0
tp3437
((F-8.51584834334426
F36.0690856312649
F61.433002587908504
tp3438
(lp3439
F0.4809501274758751
aF-0.5182620174207645
aF-0.7071714475146029
atp3440
s(I8
I74
I0
tp3441
((F13.026099281742063
F-40.505811608459226
F178.41809466005452
tp3442
(lp3443
F0.5399535696967672
aF-0.456504885308919
aF-0.7071445624911565
atp3444
s(I11
I40
I0
tp3445
((F-78.0906028407835
F-59.55223902476973
F18.461567908521374
tp3446
(lp3447
F-0.6922230789565275
aF0.1416689783968734
aF-0.7076419359534393
atp3448
s(I11
I59
I0
tp3449
((F-77.72671027421984
F-60.26643906622894
F105.5789480076669
tp3450
(lp3451
F-0.1823985364634871
aF-0.6831295246784697
aF-0.7071526188939316
atp3452
s(I12
I35
I0
tp3453
((F-14.535498395092873
F-96.08242759813083
F-10.550743285557473
tp3454
(lp3455
F-0.5859230226272202
aF-0.39632940946605677
aF-0.7068360564852849
atp3456
s(I11
I25
I0
tp3457
((F-77.76531668980624
F-59.13009927553776
F-54.12050948083197
tp3458
(lp3459
F-0.37120243625698446
aF0.6010395794105563
aF-0.7077854020102852
atp3460
s(I4
I40
I0
tp3461
((F45.5504794054832
F8.772860845208925
F17.876742097503666
tp3462
(lp3463
F-0.6257839503650786
aF0.3282504363078344
aF-0.7075634943446371
atp3464
s(I7
I78
I0
tp3465
((F-34.79739465465718
F-16.423343437189942
F-140.01295597277476
tp3466
(lp3467
F-0.001589804355315444
aF0.0007144265852812605
aF0.9999984810572294
atp3468
s(I12
I12
I0
tp3469
((F-13.453130040999895
F-96.05151532532182
F-126.73758577361832
tp3470
(lp3471
F0.610201497743206
aF-0.35800999034956466
aF-0.7067410975469396
atp3472
s(I2
I33
I0
tp3473
((F77.07946516734955
F56.000098672673175
F-25.668373756248002
tp3474
(lp3475
F-0.5390750431837781
aF-0.4585646909681205
aF-0.7064817917071324
atp3476
s(I5
I81
I0
tp3477
((F-57.22656368267417
F77.56102399474048
F-97.25992537348793
tp3478
(lp3479
F-0.001038832372510379
aF0.0008718585157529306
aF0.9999990803445923
atp3480
s(I1
I86
I0
tp3481
((F5.587953795509748
F95.6525853028329
F-33.1248247426679
tp3482
(lp3483
F0.00038864580974148216
aF0.0006531666083598863
aF0.9999997111638664
atp3484
s(I12
I95
I0
tp3485
((F-14.124877762729739
F-95.75798651617833
F106.76099547295235
tp3486
(lp3487
F-0.00036291242785576347
aF0.00012134759687069897
aF0.9999999267846625
atp3488
s(I4
I95
I0
tp3489
((F46.016234763432294
F8.476717166797698
F106.18109544373283
tp3490
(lp3491
F-0.00045038626525752487
aF-4.4969427277272235e-05
aF0.9999998975649761
atp3492
s(I12
I5
I0
tp3493
((F-13.419774788371797
F-96.04758701480023
F-155.7735356393532
tp3494
(lp3495
F0.6125915984099783
aF-0.3539539761323047
aF-0.7067164327632687
atp3496
s(I8
I32
I0
tp3497
((F13.07487588522963
F-39.672421334493265
F-24.801046301850874
tp3498
(lp3499
F0.5341769778956595
aF0.4629318587969903
aF-0.7073535540286933
atp3500
s(I5
I2
I0
tp3501
((F-56.64972581742404
F77.32490483090987
F-171.01997952842203
tp3502
(lp3503
F0.6028186404972589
aF-0.3692923985877159
aF-0.707271384275066
atp3504
s(I10
I26
I0
tp3505
((F60.67310053098299
F-79.5718733284807
F-54.00390367728096
tp3506
(lp3507
F-0.7044145382731238
aF-0.061236811446108576
aF-0.7071422849705534
atp3508
s(I7
I44
I0
tp3509
((F-34.52495349327273
F-16.93641074701827
F33.15176849469162
tp3510
(lp3511
F0.5588330690505243
aF-0.43303668357760605
aF-0.707237464796429
atp3512
s(I3
I25
I0
tp3513
((F-8.614687139724992
F36.01819644450143
F-54.7803775761181
tp3514
(lp3515
F0.262174474425948
aF-0.65607070250491
aF-0.707697518911994
atp3516
s(I11
I79
I0
tp3517
((F-77.38547564600321
F-59.5641173516683
F-125.55288544545601
tp3518
(lp3519
F0.00039920429859375433
aF0.0013505121067531724
aF0.9999990083759971
atp3520
s(I5
I51
I0
tp3521
((F-57.05332133660613
F76.96224499631853
F61.40439717228219
tp3522
(lp3523
F0.3772231858646239
aF-0.5986919825915225
aF-0.7065908137152476
atp3524
s(I1
I48
I0
tp3525
((F5.245206526464244
F96.09867131021065
F38.332494184011466
tp3526
(lp3527
F-0.38360793342423244
aF0.5944859063280984
aF-0.7067046487686699
atp3528
s(I12
I50
I0
tp3529
((F-14.044460670609624
F-95.18324969813648
F62.04916236029976
tp3530
(lp3531
F0.07352287185452284
aF0.7034669608792081
aF-0.7069148621054971
atp3532
s(I8
I94
I0
tp3533
((F12.598374803274055
F-40.11187006585578
F92.47112544556421
tp3534
(lp3535
F-0.0002503464060067697
aF-0.0003722020923868463
aF0.9999998993961347
atp3536
s(I11
I60
I0
tp3537
((F-77.98721752637539
F-59.29980166927999
F105.57928623070347
tp3538
(lp3539
F-0.5010948073066829
aF0.4994238634372481
aF-0.7067388476089956
atp3540
s(I12
I33
I0
tp3541
((F-13.566424467786419
F-95.43490507663273
F-25.074724337344378
tp3542
(lp3543
F0.5860727014853804
aF0.39612760096597943
aF-0.7068250931641901
atp3544
s(I2
I26
I0
tp3545
((F77.7678157776736
F56.9253536984279
F-54.726045702849206
tp3546
(lp3547
F0.2810380325978859
aF0.6486306090135042
aF-0.7073160236303715
atp3548
s(I4
I36
I0
tp3549
((F46.26829397633264
F7.9689814369489795
F-11.189448500810158
tp3550
(lp3551
F0.22818244789513062
aF-0.6698281187068785
aF-0.706585495083355
atp3552
s(I7
I90
I0
tp3553
((F-34.981322055497
F-16.58205440600159
F34.2938750216822
tp3554
(lp3555
F0.000762794808023164
aF0.000683457770011097
aF0.9999994755146412
atp3556
s(I3
I79
I0
tp3557
((F-8.763022656070461
F36.60757573454066
F-126.28484523511452
tp3558
(lp3559
F-0.0005478057689822091
aF0.0011235983160517253
aF0.9999992187175266
atp3560
s(I12
I59
I0
tp3561
((F-13.690464159210023
F-95.37638078423333
F105.61910673650527
tp3562
(lp3563
F0.5311973571407084
aF0.4669280194075178
aF-0.7069707154181843
atp3564
s(I2
I45
I0
tp3565
((F77.11130483007219
F56.77825123643697
F32.48450655814486
tp3566
(lp3567
F-0.4608234343190165
aF0.5369849185945419
aF-0.7066038208108134
atp3568
s(I1
I90
I0
tp3569
((F5.563688340020235
F95.62044316430229
F24.95816535839458
tp3570
(lp3571
F-4.6809678059314356e-05
aF0.0006110280770203292
aF0.9999998122267539
atp3572
s(I7
I11
I0
tp3573
((F-35.15647552932478
F-16.906386896932872
F-126.62815119588959
tp3574
(lp3575
F-0.4186085250214297
aF-0.5696157947762159
aF-0.707322238531239
atp3576
s(I12
I17
I0
tp3577
((F-13.626236907348357
F-96.21511683120889
F-97.69362065998166
tp3578
(lp3579
F0.4335721840724525
aF-0.5590227123996593
aF-0.7067593425063239
atp3580
s(I8
I52
I0
tp3581
((F12.680532548283736
F-39.53311280827984
F76.8159681180905
tp3582
(lp3583
F0.09535230526642437
aF0.7004538718260163
aF-0.7072993081604996
atp3584
s(I11
I98
I0
tp3585
((F-77.5941042107579
F-59.719893084202795
F150.26897548853458
tp3586
(lp3587
F-0.00031936045605715274
aF-0.00011522042674074185
aF0.9999999423665745
atp3588
s(I5
I30
I0
tp3589
((F-57.5071880885107
F76.98121674152526
F-40.29633235314304
tp3590
(lp3591
F-0.274262654478243
aF-0.6525898538300293
aF-0.7063331218601099
atp3592
s(I10
I22
I0
tp3593
((F61.24748677855314
F-80.09136443642092
F-68.52834893806448
tp3594
(lp3595
F-0.016029088861915355
aF-0.7063319944022346
aF-0.707699217177763
atp3596
s(I7
I56
I0
tp3597
((F-34.97784729613977
F-16.03934574649884
F91.20177005858022
tp3598
(lp3599
F0.05293770655452664
aF0.7050299185165986
aF-0.7071989912473188
atp3600
s(I3
I45
I0
tp3601
((F-8.365260119435334
F36.268436263439526
F32.38348348755244
tp3602
(lp3603
F0.6454428378878079
aF-0.2900458469620707
aF-0.7065953224295983
atp3604
s(I8
I99
I0
tp3605
((F12.586064902929138
F-40.13087262067711
F165.0461255299033
tp3606
(lp3607
F0.0001797532308290395
aF-1.4756901173477437e-05
aF0.9999999837355048
atp3608
s(I11
I83
I0
tp3609
((F-77.44896292252542
F-59.61145902692215
F-67.49293522439939
tp3610
(lp3611
F-0.0012380722237191875
aF-9.116314706163787e-05
aF0.9999992294329278
atp3612
s(I10
I38
I0
tp3613
((F61.642676820038105
F-79.17093183090765
F4.097071209611386
tp3614
(lp3615
F0.5347052578705617
aF0.46265367595853263
aF-0.7071363824098101
atp3616
s(I1
I36
I0
tp3617
((F5.809421829733765
F96.17439105210815
F-19.74440795890223
tp3618
(lp3619
F0.2793896733722921
aF0.6501245484707896
aF-0.7065971142656726
atp3620
s(I10
I91
I0
tp3621
((F61.17862365549445
F-79.56627423759983
F48.794085325634114
tp3622
(lp3623
F-0.0003814942025756253
aF0.0005436261755908193
aF0.999999779466353
atp3624
s(I8
I82
I0
tp3625
((F12.664510732267445
F-40.00969148005015
F-81.72782486827737
tp3626
(lp3627
F-0.0008044174304729243
aF0.00042638372533806317
aF0.9999995855546723
atp3628
s(I4
I1
I0
tp3629
((F45.700460891835974
F8.845454677883936
F-171.04539899831434
tp3630
(lp3631
F-0.6410649264412244
aF0.2966308354143732
aF-0.7078459631644999
atp3632
s(I12
I2303
I0
tp3633
((F-13.803759381766213
F-96.23010047255411
F149.20705443295083
tp3634
(lp3635
F0.40806511492520475
aF-0.5775679635583583
aF-0.7070347300183565
atp3636
s(I12
I39
I0
tp3637
((F-13.494615247247566
F-95.83453891286126
F3.9692326252879866
tp3638
(lp3639
F0.7012228601961391
aF-0.09297795506280916
aF-0.7068533088347853
atp3640
s(I2
I6
I0
tp3641
((F77.7690494917133
F55.92079121737925
F-156.36011475323494
tp3642
(lp3643
F0.18950494109041
aF-0.6821150793161074
aF-0.7062626252831881
atp3644
s(I5
I72
I0
tp3645
((F-57.021205757428106
F77.85054936051165
F163.0671066943912
tp3646
(lp3647
F0.4682667014350524
aF0.5300664991319836
aF-0.7069340866198902
atp3648
s(I4
I48
I0
tp3649
((F46.61706677777511
F8.57359015319571
F46.92244079217335
tp3650
(lp3651
F0.7006875185951447
aF0.09806634862150636
aF-0.7066965349802021
atp3652
s(I3
I67
I0
tp3653
((F-8.854093203235607
F37.03725252938966
F148.59091009135773
tp3654
(lp3655
F0.10886450550105403
aF0.6985085355986781
aF-0.7072724688108546
atp3656
s(I2
I89
I0
tp3657
((F77.49583714470282
F56.34729067273793
F19.070095245918765
tp3658
(lp3659
F0.0007219950043720261
aF-0.00028146348676240526
aF0.9999996997507146
atp3660
s(I1
I78
I0
tp3661
((F5.648232161551277
F95.73528754070912
F-149.35577495196367
tp3662
(lp3663
F-0.000602988146115873
aF0.0007954044844309474
aF0.9999995018683768
atp3664
s(I7
I23
I0
tp3665
((F-35.46074064896948
F-16.54924673195228
F-68.50719831673314
tp3666
(lp3667
F-0.7044081884854374
aF-0.05952888186283316
aF-0.7072944338949837
atp3668
s(I12
I29
I0
tp3669
((F-13.716717362063719
F-96.24183668333717
F-39.589710874366574
tp3670
(lp3671
F0.3874945640784458
aF-0.5918357514050339
aF-0.7068086064618161
atp3672
s(I8
I8
I0
tp3673
((F13.122854536828527
F-40.3529598109144
F-141.00506052344554
tp3674
(lp3675
F0.5213401473958473
aF-0.47722574744690127
aF-0.7074320014581067
atp3676
s(I5
I42
I0
tp3677
((F-56.826499818439515
F77.19402292959012
F17.815514318004716
tp3678
(lp3679
F0.6184507803638427
aF-0.3441164168957774
aF-0.7064718847131608
atp3680
s(I1
I31
I0
tp3681
((F5.364793577869932
F96.18520731182343
F-34.26708623322156
tp3682
(lp3683
F-0.2727389412427419
aF0.65204346467423
aF-0.7074268796882222
atp3684
s(I3
I33
I0
tp3685
((F-8.288689815857651
F36.666069460541166
F-25.711394047103568
tp3686
(lp3687
F0.6897861530483724
aF0.15841518726672957
aF-0.7064698801123614
atp3688
s(I11
I39
I0
tp3689
((F-77.07230245621304
F-59.28598366436063
F3.951544656036731
tp3690
(lp3691
F0.5395970511491107
aF0.45798514527486384
aF-0.7064592196997261
atp3692
s(I10
I56
I0
tp3693
((F60.580979338605175
F-79.53957602724267
F91.21206006176544
tp3694
(lp3695
F-0.7052697185042499
aF0.05067476831467559
aF-0.7071256550410189
atp3696
s(I1
I40
I0
tp3697
((F6.008563334029532
F96.00270296872031
F9.28694104885426
tp3698
(lp3699
F0.5371456937167011
aF0.4594411659039715
aF-0.7073813107471835
atp3700
s(I10
I65
I0
tp3701
((F61.536346206652524
F-80.0134400173747
F134.7770653731609
tp3702
(lp3703
F0.4822753082214917
aF-0.5171005403369283
aF-0.707119196644471
atp3704
s(I10
I36
I0
tp3705
((F60.927195858426785
F-80.04377171931674
F-10.424459650877907
tp3706
(lp3707
F-0.3531354750991959
aF-0.6132271814153482
aF-0.7065746671087585
atp3708
s(I11
I20
I0
tp3709
((F-77.20165456135055
F-60.13010519065347
F-83.14500949838884
tp3710
(lp3711
F0.282371100377931
aF-0.6481666745832789
aF-0.7072103814502515
atp3712
s(I4
I29
I0
tp3713
((F45.551895049044106
F8.3584254363941
F-40.26087508030878
tp3714
(lp3715
F-0.6755455961882108
aF-0.208854213884703
aF-0.7071195548231697
atp3716
s(I12
I37
I0
tp3717
((F-14.420127024730391
F-96.21621883265198
F3.968609273841139
tp3718
(lp3719
F-0.431018755594185
aF-0.5599130061476562
aF-0.707615897131159
atp3720
s(I2
I50
I0
tp3721
((F77.67599851386512
F55.78324975939404
F61.56897601188166
tp3722
(lp3723
F0.24629995290569118
aF-0.6626816421920384
aF-0.7072406763615321
atp3724
s(I5
I68
I0
tp3725
((F-57.37968251901111
F76.84252402594257
F148.543935332174
tp3726
(lp3727
F0.025265079364741743
aF-0.7066183173778303
aF-0.7071437119219948
atp3728
s(I4
I76
I0
tp3729
((F46.22409191677434
F8.603555707538362
F-169.90279520089916
tp3730
(lp3731
F-0.0006832329235425562
aF0.0010135713134559006
aF0.9999992529327033
atp3732
s(I3
I87
I0
tp3733
((F-8.863045932857858
F36.52928856924109
F-10.045914883389287
tp3734
(lp3735
F2.891744381751241e-05
aF0.0009264330162217333
aF0.9999995704427317
atp3736
s(I8
I45
I0
tp3737
((F13.187434005973046
F-40.171752429768276
F33.263496863623914
tp3738
(lp3739
F0.6995961552587917
aF-0.10578416061705141
aF-0.7066646523703181
atp3740
s(I2
I69
I0
tp3741
((F76.86947055563905
F56.27779655615177
F148.76623242165442
tp3742
(lp3743
F-0.7069747565530379
aF-0.021403195385224155
aF-0.7069148441107138
atp3744
s(I10
I15
I0
tp3745
((F60.9863636607879
F-79.00252203610671
F-112.07027603615188
tp3746
(lp3747
F-0.38330207131980865
aF0.5950318637559785
aF-0.7064110724196152
atp3748
s(I7
I35
I0
tp3749
((F-34.74371451926527
F-16.008988930832857
F-10.418232751551386
tp3750
(lp3751
F0.2464356323165607
aF0.6626070137423699
aF-0.7072633345962138
atp3752
s(I3
I4
I0
tp3753
((F-8.715135633496175
F37.20691787259466
F-156.4844264072958
tp3754
(lp3755
F0.021400056916953392
aF0.7060458269632058
aF-0.707842728147852
atp3756
s(I8
I28
I0
tp3757
((F12.092647469347867
F-39.87037320565105
F-39.31710270269241
tp3758
(lp3759
F-0.6752005349896638
aF0.20894398744374995
aF-0.7074225382759428
atp3760
s(I5
I38
I0
tp3761
((F-57.60501804409705
F77.98728002387952
F3.286916853910043
tp3762
(lp3763
F-0.3477154794212166
aF0.6155817398846256
aF-0.7072150075411937
atp3764
s(I1
I3
I0
tp3765
((F6.160433709032077
F95.45779190817711
F-179.55916237676365
tp3766
(lp3767
F0.6046909337623914
aF-0.3679543478205958
aF-0.7063699261332459
atp3768
s(I3
I53
I0
tp3769
((F-8.42320467011632
F36.78778528869634
F75.95900703527286
tp3770
(lp3771
F0.6037784317130791
aF0.36792365609770444
aF-0.7071660262497009
atp3772
s(I8
I75
I0
tp3773
((F12.040817211916874
F-40.32841027543691
F178.4181942625214
tp3774
(lp3775
F-0.6654091170778282
aF-0.2394777476417841
aF-0.7070227120072756
atp3776
s(I11
I43
I0
tp3777
((F-78.1065941945235
F-59.762497223343416
F32.98759416280609
tp3778
(lp3779
F-0.6986509983231965
aF-0.10571229793463824
aF-0.7076098449056366
atp3780
s(I10
I58
I0
tp3781
((F61.67455975518715
F-79.83073158947263
F105.7348556304014
tp3782
(lp3783
F0.6395896139051083
aF-0.3009063874249245
aF-0.7073757642099393
atp3784
s(I11
I24
I0
tp3785
((F-76.90171955446021
F-59.801496273268185
F-68.63427590145875
tp3786
(lp3787
F0.6686258531704901
aF-0.23254841207985621
aF-0.7063007181867873
atp3788
s(I4
I41
I0
tp3789
((F46.550799122333046
F8.813014687545547
F17.877106830166667
tp3790
(lp3791
F0.5979753145797777
aF0.377373367461404
aF-0.7071172920273242
atp3792
s(I7
I73
I0
tp3793
((F-35.15582391748012
F-17.210412913622804
F178.35675368790544
tp3794
(lp3795
F-0.1274947623245842
aF-0.6954160375750147
aF-0.7072069147450861
atp3796
s(I12
I43
I0
tp3797
((F-14.521371161972638
F-96.13973662791341
F33.011649339131964
tp3798
(lp3799
F-0.5307941905348782
aF-0.46650177054270286
aF-0.7075546801307633
atp3800
s(I2
I62
I0
tp3801
((F76.88674548509152
F56.19164159652155
F119.69000497599654
tp3802
(lp3803
F-0.6939063755834068
aF-0.13554299216190796
aF-0.707193070667761
atp3804
s(I5
I80
I0
tp3805
((F-57.21051034987795
F77.57140681804458
F-111.79590543116456
tp3806
(lp3807
F-0.0006154995765770818
aF-0.0012553181800032734
aF0.9999990226677915
atp3808
s(I1
I85
I0
tp3809
((F5.594908303661214
F95.66150593421435
F-47.66281476871745
tp3810
(lp3811
F0.0006131539625093677
aF0.0005037979900679288
aF0.9999996851148522
atp3812
s(I4
I88
I0
tp3813
((F46.072643203373445
F8.510140414874058
F4.479115226990416
tp3814
(lp3815
F0.0007980536763893467
aF3.8278649524981565e-05
aF0.9999996808224864
atp3816
s(I12
I6
I0
tp3817
((F-14.420899967595687
F-96.04819980584261
F-155.77353902774803
tp3818
(lp3819
F-0.6121530435375402
aF-0.35470364516609837
aF-0.7067205780176554
atp3820
s(I8
I33
I0
tp3821
((F12.748163958267469
F-40.618735707693304
F-24.800395258665958
tp3822
(lp3823
F0.13448801760419485
aF-0.694758989687119
aF-0.7065570885426226
atp3824
s(I5
I1
I0
tp3825
((F-57.128894390573805
F78.2039094718607
F-171.02054494189906
tp3826
(lp3827
F0.01661907751209172
aF0.7060538683862716
aF-0.7079630931054447
atp3828
s(I10
I27
I0
tp3829
((F61.49293890296394
F-78.99731543935741
F-54.00337843940724
tp3830
(lp3831
F0.29854960066168973
aF0.6416590009815353
aF-0.7064997256928863
atp3832
s(I7
I47
I0
tp3833
((F-35.28635187735745
F-17.090037105067495
F47.6597660127768
tp3834
(lp3835
F-0.35925523130399806
aF-0.6089037714585325
aF-0.7072283053472097
atp3836
s(I3
I24
I0
tp3837
((F-9.313892531579768
F36.85921222248362
F-69.30529607064364
tp3838
(lp3839
F-0.6090925932497031
aF0.3605885659888549
aF-0.7063866497368512
atp3840
s(I8
I16
I0
tp3841
((F13.248831180881098
F-40.04467332931654
F-97.45011326244548
tp3842
(lp3843
F0.7045481624656499
aF-0.05563377815651533
aF-0.707472098032359
atp3844
s(I11
I78
I0
tp3845
((F-77.37036392376467
F-59.55399976598892
F-140.07787550032162
tp3846
(lp3847
F-0.0011390734633075182
aF-0.00089190221283841
aF0.9999989535104964
atp3848
s(I5
I50
I0
tp3849
((F-57.09171485140814
F77.96263376980824
F61.40390737983398
tp3850
(lp3851
F0.3302537833210532
aF0.6251517640478457
aF-0.7071900101882079
atp3852
s(I1
I55
I0
tp3853
((F5.276668861974031
F96.10683680470038
F81.90500389669023
tp3854
(lp3855
F-0.3288897585041166
aF0.6257549009965787
aF-0.7072922526296084
atp3856
s(I8
I95
I0
tp3857
((F12.595571967975047
F-40.1168526233314
F106.98912546638394
tp3858
(lp3859
F0.0003368182775609498
aF-0.00021475955586425103
aF0.9999999202158874
atp3860
s(I11
I63
I0
tp3861
((F-78.13203805634294
F-59.52855171932106
F120.09523781365806
tp3862
(lp3863
F-0.670672444009318
aF0.225060463100023
aF-0.7067858662959888
atp3864
s(I10
I60
I0
tp3865
((F61.10334250337655
F-79.00856211459359
F105.73530929481376
tp3866
(lp3867
F-0.05921936928883368
aF0.7049095485116754
aF-0.7068207656245666
atp3868
s(I12
I89
I0
tp3869
((F-14.078403949570202
F-95.7584836494957
F19.633015316454475
tp3870
(lp3871
F-0.0006390992667417103
aF-0.00022578572080807842
aF0.9999997702864414
atp3872
s(I12
I60
I0
tp3873
((F-14.010862660399653
F-96.32485155364839
F105.61910555455643
tp3874
(lp3875
F0.13923204075186094
aF-0.6934008954895033
aF-0.7069721613772547
atp3876
s(I2
I27
I0
tp3877
((F77.88336282522687
F55.93091900882018
F-54.72531913106968
tp3878
(lp3879
F0.422394608501253
aF-0.567929101139808
aF-0.7064271588689119
atp3880
s(I4
I37
I0
tp3881
((F46.55150240337207
F8.83243819187328
F3.3367203698949197
tp3882
(lp3883
F0.5863717265093507
aF0.39431524138002616
aF-0.707590057000418
atp3884
s(I7
I85
I0
tp3885
((F-34.91496982890658
F-16.525895940554165
F-38.32307536991084
tp3886
(lp3887
F0.0011750213950627788
aF0.0006719232215571086
aF0.9999990839215331
atp3888
s(I3
I78
I0
tp3889
((F-8.749017208916484
F36.617065656108025
F-140.81783527926882
tp3890
(lp3891
F-0.00109235861409878
aF-0.0006764801154825382
aF0.9999991745633151
atp3892
s(I12
I41
I0
tp3893
((F-13.97016953605089
F-95.19031143336451
F18.491212511874437
tp3894
(lp3895
F0.13196956697774417
aF0.6949279960307555
aF-0.7068656970913111
atp3896
s(I2
I42
I0
tp3897
((F77.01450346167985
F56.668851502843154
F17.928532931312475
tp3898
(lp3899
F-0.5883501275665451
aF0.3931930684741112
aF-0.7065715379891431
atp3900
s(I1
I89
I0
tp3901
((F5.569850473706538
F95.62706656317414
F10.4291653337541
tp3902
(lp3903
F0.0006353240075739821
aF-0.0001455730501741251
aF0.9999997875859237
atp3904
s(I4
I84
I0
tp3905
((F46.116595500525364
F8.536863338405055
F-53.63986491413061
tp3906
(lp3907
F0.0009203508275164716
aF0.00027120218066260197
aF0.9999995397017598
atp3908
s(I7
I10
I0
tp3909
((F-34.240369122097945
F-16.502653409741924
F-126.62871860882478
tp3910
(lp3911
F0.7021268605129811
aF-0.07570111210317831
aF-0.7080163934348744
atp3912
s(I12
I18
I0
tp3913
((F-14.553447002448593
F-95.83758082029999
F-97.69362367598023
tp3914
(lp3915
F-0.7007470993718539
aF-0.09715718738963769
aF-0.7067630321829715
atp3916
s(I8
I53
I0
tp3917
((F13.059191304451815
F-40.45986495720808
F76.81599700778224
tp3918
(lp3919
F0.5585913610478349
aF-0.4333051748631993
aF-0.707263965432638
atp3920
s(I5
I29
I0
tp3921
((F-56.70955177579435
F77.58621903367202
F-40.297066610857655
tp3922
(lp3923
F0.7015401926530597
aF0.08755067110152395
aF-0.7072313893500349
atp3924
s(I10
I23
I0
tp3925
((F60.767201993397975
F-79.212969127404
F-68.52789479555622
tp3926
(lp3927
F-0.6035941900454143
aF0.3682688353006968
aF-0.7071436337051255
atp3928
s(I12
I48
I0
tp3929
((F-14.24082927830932
F-95.19855399333983
F47.52317449116026
tp3930
(lp3931
F-0.17729236562776368
aF0.6847333765436344
aF-0.7069000071702254
atp3932
s(I7
I59
I0
tp3933
((F-35.527631913987534
F-16.33096509725692
F105.74277862475356
tp3934
(lp3935
F-0.6105771569132287
aF0.3564826816356405
aF-0.7071885414439498
atp3936
s(I3
I44
I0
tp3937
((F-8.950665743768695
F37.0805643477197
F32.38300419447933
tp3938
(lp3939
F-0.07072374811743048
aF0.703485771699903
aF-0.7071816743016
atp3940
s(I8
I100
I0
tp3941
((F12.584794663007415
F-40.13263108265119
F179.56012553907703
tp3942
(lp3943
F0.00010951330750287719
aF4.6781125869529594e-05
aF0.9999999929091808
atp3944
s(I11
I82
I0
tp3945
((F-77.4317759696587
F-59.60007144174551
F-82.00292527975307
tp3946
(lp3947
F0.0012288806428126851
aF0.0003764220305598698
aF0.9999991740790692
atp3948
s(I12
I75
I0
tp3949
((F-13.596937254749719
F-95.56039584584914
F165.7220321715822
tp3950
(lp3951
F0.6644932923411245
aF0.2418926090583109
aF-0.7070619704924145
atp3952
s(I1
I59
I0
tp3953
((F6.098974053615166
F95.74406655255643
F96.43206542288499
tp3954
(lp3955
F0.6815691468881391
aF0.18790322322483516
aF-0.7072169940774132
atp3956
s(I8
I83
I0
tp3957
((F12.657298653160979
F-40.021035472461335
F-67.21083484024075
tp3958
(lp3959
F-0.0008764965359696336
aF-6.760868596644529e-05
aF0.9999996135913694
atp3960
s(I11
I3
I0
tp3961
((F-76.9196686416517
F-59.12479229517385
F-170.2530380959529
tp3962
(lp3963
F0.5079661117493594
aF0.4933207974468753
aF-0.7061196924888984
atp3964
s(I10
I62
I0
tp3965
((F60.91466693695838
F-80.11743890647949
F120.25406352559594
tp3966
(lp3967
F-0.28376309871879823
aF-0.6476555919300522
aF-0.7071214450483305
atp3968
s(I4
I2
I0
tp3969
((F46.6975712572621
F8.935023481050848
F-171.04480852361257
tp3970
(lp3971
F0.5787681202434384
aF0.4062064549680983
aF-0.7071235952307964
atp3972
s(I2
I7
I0
tp3973
((F77.60867029300607
F55.88711874976843
F-141.83527915467448
tp3974
(lp3975
F0.007933017469168488
aF-0.7064936651023138
aF-0.7076749030480969
atp3976
s(I4
I49
I0
tp3977
((F46.39411692399335
F8.942893954545525
F61.45580240619256
tp3978
(lp3979
F0.43705034479357596
aF0.5553940373303674
aF-0.7074775327978203
atp3980
s(I7
I97
I0
tp3981
((F-35.041082836779424
F-16.632606687614043
F135.8958354366232
tp3982
(lp3983
F-0.0004679864776931333
aF-8.82383887929156e-06
aF0.9999998904553923
atp3984
s.