(lp0
((lp1
I3
aI43
aI0
aF6183.695488397151
tp2
a((lp3
I3
aI53
aI0
aF6132.469543510512
tp4
a((lp5
I3
aI55
aI0
aF6123.096708678214
tp6
a((lp7
I3
aI63
aI0
aF6101.111511745564
tp8
a((lp9
I3
aI72
aI0
aF6242.224075588356
tp10
a((lp11
I4
aI39
aI0
aF5839.475388765526
tp12
a((lp13
I4
aI53
aI0
aF5837.120622799237
tp14
a((lp15
I4
aI55
aI0
aF5852.367364117229
tp16
a((lp17
I4
aI59
aI0
aF5887.637786539921
tp18
a((lp19
I4
aI63
aI0
aF5927.5066896114795
tp20
a((lp21
I4
aI66
aI0
aF5974.182696602066
tp22
a((lp23
I4
aI67
aI0
aF6026.505683379173
tp24
a((lp25
I4
aI74
aI0
aF6189.399572914085
tp26
a((lp27
I5
aI69
aI0
aF6418.230832343761
tp28
a((lp29
I6
aI48
aI0
aF5589.782969572198
tp30
a((lp31
I6
aI51
aI0
aF5802.754960477363
tp32
a((lp33
I6
aI63
aI0
aF6036.814798743233
tp34
a((lp35
I7
aI19
aI0
aF5754.392414131943
tp36
a((lp37
I7
aI21
aI0
aF5742.159795286555
tp38
a((lp39
I7
aI61
aI0
aF5980.991512192386
tp40
a((lp41
I7
aI62
aI0
aF6144.8082398163
tp42
a((lp43
I7
aI65
aI0
aF6001.634881832769
tp44
a((lp45
I7
aI66
aI0
aF6002.3951699668105
tp46
a((lp47
I7
aI67
aI0
aF6062.111631381514
tp48
a((lp49
I7
aI68
aI0
aF6072.9074331290085
tp50
a((lp51
I7
aI70
aI0
aF6122.082716330359
tp52
a((lp53
I7
aI72
aI0
aF6179.8425305384435
tp54
a((lp55
I8
aI40
aI0
aF5829.5035856612
tp56
a((lp57
I8
aI51
aI0
aF5801.717333822996
tp58
a((lp59
I8
aI52
aI0
aF5784.705120739895
tp60
a((lp61
I8
aI53
aI0
aF5786.8900455425
tp62
a((lp63
I8
aI55
aI0
aF5784.7952724827455
tp64
a((lp65
I8
aI56
aI0
aF5783.557362742169
tp66
a((lp67
I8
aI57
aI0
aF5777.366053412111
tp68
a((lp69
I8
aI58
aI0
aF5808.593012665021
tp70
a((lp71
I8
aI63
aI0
aF5867.499549803128
tp72
a((lp73
I8
aI70
aI0
aF5840.0164852009075
tp74
a((lp75
I8
aI72
aI0
aF6170.00042299554
tp76
a((lp77
I9
aI58
aI0
aF6323.643433158535
tp78
a((lp79
I9
aI69
aI0
aF6216.57852718688
tp80
a((lp81
I9
aI70
aI0
aF6225.467057485557
tp82
a((lp83
I9
aI71
aI0
aF6218.790303334237
tp84
a((lp85
I9
aI72
aI0
aF6216.203758342139
tp86
a((lp87
I9
aI73
aI0
aF6265.072992627833
tp88
a((lp89
I9
aI74
aI0
aF6265.474651795043
tp90
a((lp91
I9
aI75
aI0
aF6280.495260740353
tp92
a((lp93
I10
aI37
aI0
aF5659.535878460415
tp94
a((lp95
I10
aI52
aI0
aF5656.21544972079
tp96
a((lp97
I10
aI53
aI0
aF5458.123684405435
tp98
a((lp99
I10
aI54
aI0
aF5655.488757270293
tp100
a((lp101
I10
aI55
aI0
aF5865.458754308655
tp102
a((lp103
I10
aI62
aI0
aF5995.5816364931425
tp104
a((lp105
I10
aI64
aI0
aF6084.343194551782
tp106
a((lp107
I10
aI65
aI0
aF5892.464413732017
tp108
a((lp109
I10
aI72
aI0
aF5930.349934110636
tp110
a((lp111
I12
aI44
aI0
aF5920.509514374088
tp112
a.