(lp0
((lp1
I1
aI43
aI0
aF5243.8596734652465
tp2
a((lp3
I1
aI45
aI0
aF5501.787382787012
tp4
a((lp5
I1
aI47
aI0
aF5274.003430432734
tp6
a((lp7
I1
aI49
aI0
aF5277.16675666612
tp8
a((lp9
I1
aI50
aI0
aF5277.867975219342
tp10
a((lp11
I1
aI51
aI0
aF5279.5217514251835
tp12
a((lp13
I1
aI52
aI0
aF5347.240069173215
tp14
a((lp15
I1
aI53
aI0
aF5346.7312320374285
tp16
a((lp17
I1
aI54
aI0
aF5345.110952104805
tp18
a((lp19
I1
aI57
aI0
aF5412.915992337274
tp20
a((lp21
I1
aI58
aI0
aF5479.005089115417
tp22
a((lp23
I1
aI72
aI0
aF5718.457310758941
tp24
a((lp25
I2
aI49
aI0
aF5723.499218276269
tp26
a((lp27
I2
aI67
aI0
aF5855.130344273087
tp28
a((lp29
I2
aI70
aI0
aF5847.715030739395
tp30
a((lp31
I2
aI71
aI0
aF5860.228830488069
tp32
a((lp33
I2
aI72
aI0
aF5847.216536408536
tp34
a((lp35
I2
aI74
aI0
aF5892.074572827289
tp36
a((lp37
I2
aI75
aI0
aF5906.375803837506
tp38
a((lp39
I3
aI42
aI0
aF5355.892562499976
tp40
a((lp41
I3
aI46
aI0
aF5345.728270822635
tp42
a((lp43
I3
aI52
aI0
aF5527.076896246602
tp44
a((lp45
I3
aI57
aI0
aF5663.966781217925
tp46
a((lp47
I3
aI58
aI0
aF5645.133805998227
tp48
a((lp49
I4
aI49
aI0
aF5668.293798389573
tp50
a((lp51
I4
aI61
aI0
aF5799.442443061025
tp52
a((lp53
I4
aI69
aI0
aF5915.18764300963
tp54
a((lp55
I5
aI5
aI0
aF4839.949227860611
tp56
a((lp57
I5
aI11
aI0
aF4864.805039931558
tp58
a((lp59
I5
aI17
aI0
aF4896.348406597966
tp60
a((lp61
I5
aI22
aI0
aF4914.7713267677955
tp62
a((lp63
I5
aI25
aI0
aF4941.603403345211
tp64
a((lp65
I5
aI28
aI0
aF4964.108844536194
tp66
a((lp67
I5
aI29
aI0
aF5001.086385530509
tp68
a((lp69
I5
aI30
aI0
aF4966.558096685601
tp70
a((lp71
I5
aI31
aI0
aF5009.075835491142
tp72
a((lp73
I5
aI32
aI0
aF5006.909551330801
tp74
a((lp75
I5
aI33
aI0
aF5002.922261473533
tp76
a((lp77
I5
aI35
aI0
aF5052.390346414679
tp78
a((lp79
I5
aI37
aI0
aF5134.609072246468
tp80
a.